   1              		.cpu cortex-m4
   2              		.eabi_attribute 27, 1
   3              		.eabi_attribute 20, 1
   4              		.eabi_attribute 21, 1
   5              		.eabi_attribute 23, 3
   6              		.eabi_attribute 24, 1
   7              		.eabi_attribute 25, 1
   8              		.eabi_attribute 26, 1
   9              		.eabi_attribute 30, 6
  10              		.eabi_attribute 34, 1
  11              		.eabi_attribute 18, 4
  12              		.file	"xmc_usbd.c"
  13              		.text
  14              	.Ltext0:
  15              		.cfi_sections	.debug_frame
  16              		.global	XMC_USBD_EP_OUT_BUFFERSIZE
  17              		.bss
  18              		.align	2
  21              	XMC_USBD_EP_OUT_BUFFERSIZE:
  22 0000 00000000 		.space	28
  22      00000000 
  22      00000000 
  22      00000000 
  22      00000000 
  23              		.global	XMC_USBD_EP_IN_BUFFERSIZE
  24              		.align	2
  27              	XMC_USBD_EP_IN_BUFFERSIZE:
  28 001c 00000000 		.space	28
  28      00000000 
  28      00000000 
  28      00000000 
  28      00000000 
  29              		.comm	xmc_device,520,4
  30              		.section	USB_RAM,"aw",%progbits
  31              		.align	2
  34              	XMC_USBD_EP_OUT_BUFFER:
  35 0000 00000000 		.space	1792
  35      00000000 
  35      00000000 
  35      00000000 
  35      00000000 
  36              		.align	2
  39              	XMC_USBD_EP_IN_BUFFER:
  40 0700 00000000 		.space	1792
  40      00000000 
  40      00000000 
  40      00000000 
  40      00000000 
  41              		.comm	usbd_init,4,4
  42              		.global	Driver_USBD0
  43              		.section	.rodata
  44              		.align	2
  47              	Driver_USBD0:
  48 0000 00000000 		.word	XMC_USBD_GetCapabilities
  49 0004 00000000 		.word	XMC_USBD_Init
  50 0008 00000000 		.word	XMC_USBD_Uninitialize
  51 000c 00000000 		.word	XMC_USBD_DeviceConnect
  52 0010 00000000 		.word	XMC_USBD_DeviceDisconnect
  53 0014 00000000 		.word	XMC_USBD_DeviceGetState
  54 0018 00000000 		.word	XMC_USBD_DeviceSetAddress
  55 001c 00000000 		.word	XMC_USBD_EndpointConfigure
  56 0020 00000000 		.word	XMC_USBD_EndpointUnconfigure
  57 0024 00000000 		.word	XMC_USBD_EndpointStall
  58 0028 00000000 		.word	XMC_USBD_EndpointReadStart
  59 002c 00000000 		.word	XMC_USBD_EndpointRead
  60 0030 00000000 		.word	XMC_USBD_EndpointWrite
  61 0034 00000000 		.word	XMC_USBD_EndpointAbort
  62 0038 00000000 		.word	XMC_USBD_GetFrameNumber
  63 003c 00000000 		.word	XMC_USBD_IsEnumDone
  64              		.section	.text.XMC_USBD_lDeviceActive,"ax",%progbits
  65              		.align	1
  66              		.global	XMC_USBD_lDeviceActive
  67              		.syntax unified
  68              		.thumb
  69              		.thumb_func
  70              		.fpu fpv4-sp-d16
  72              	XMC_USBD_lDeviceActive:
  73              	.LFB162:
  74              		.file 1 "/opt/XMClib/XMC_Peripheral_Library_v2.1.16/XMCLib/src/xmc_usbd.c"
   1:/opt/XMClib/XMC_Peripheral_Library_v2.1.16/XMCLib/src/xmc_usbd.c **** /**
   2:/opt/XMClib/XMC_Peripheral_Library_v2.1.16/XMCLib/src/xmc_usbd.c ****  * @file xmc_usbd.c
   3:/opt/XMClib/XMC_Peripheral_Library_v2.1.16/XMCLib/src/xmc_usbd.c ****  * @date 2015-06-20
   4:/opt/XMClib/XMC_Peripheral_Library_v2.1.16/XMCLib/src/xmc_usbd.c ****  *
   5:/opt/XMClib/XMC_Peripheral_Library_v2.1.16/XMCLib/src/xmc_usbd.c ****  * @cond
   6:/opt/XMClib/XMC_Peripheral_Library_v2.1.16/XMCLib/src/xmc_usbd.c ****  **********************************************************************************
   7:/opt/XMClib/XMC_Peripheral_Library_v2.1.16/XMCLib/src/xmc_usbd.c ****  * XMClib v2.1.16 - XMC Peripheral Driver Library 
   8:/opt/XMClib/XMC_Peripheral_Library_v2.1.16/XMCLib/src/xmc_usbd.c ****  *
   9:/opt/XMClib/XMC_Peripheral_Library_v2.1.16/XMCLib/src/xmc_usbd.c ****  * Copyright (c) 2015-2017, Infineon Technologies AG
  10:/opt/XMClib/XMC_Peripheral_Library_v2.1.16/XMCLib/src/xmc_usbd.c ****  * All rights reserved.                        
  11:/opt/XMClib/XMC_Peripheral_Library_v2.1.16/XMCLib/src/xmc_usbd.c ****  *                                             
  12:/opt/XMClib/XMC_Peripheral_Library_v2.1.16/XMCLib/src/xmc_usbd.c ****  * Redistribution and use in source and binary forms, with or without           
  13:/opt/XMClib/XMC_Peripheral_Library_v2.1.16/XMCLib/src/xmc_usbd.c ****  * modification,are permitted provided that the following conditions are met:   
  14:/opt/XMClib/XMC_Peripheral_Library_v2.1.16/XMCLib/src/xmc_usbd.c ****  *                                                                              
  15:/opt/XMClib/XMC_Peripheral_Library_v2.1.16/XMCLib/src/xmc_usbd.c ****  *   Redistributions of source code must retain the above copyright notice,      
  16:/opt/XMClib/XMC_Peripheral_Library_v2.1.16/XMCLib/src/xmc_usbd.c ****  *   this list of conditions and the following disclaimer.                        
  17:/opt/XMClib/XMC_Peripheral_Library_v2.1.16/XMCLib/src/xmc_usbd.c ****  * 
  18:/opt/XMClib/XMC_Peripheral_Library_v2.1.16/XMCLib/src/xmc_usbd.c ****  *   Redistributions in binary form must reproduce the above copyright notice,   
  19:/opt/XMClib/XMC_Peripheral_Library_v2.1.16/XMCLib/src/xmc_usbd.c ****  *   this list of conditions and the following disclaimer in the documentation    
  20:/opt/XMClib/XMC_Peripheral_Library_v2.1.16/XMCLib/src/xmc_usbd.c ****  *   and/or other materials provided with the distribution.                       
  21:/opt/XMClib/XMC_Peripheral_Library_v2.1.16/XMCLib/src/xmc_usbd.c ****  * 
  22:/opt/XMClib/XMC_Peripheral_Library_v2.1.16/XMCLib/src/xmc_usbd.c ****  *   Neither the name of the copyright holders nor the names of its contributors 
  23:/opt/XMClib/XMC_Peripheral_Library_v2.1.16/XMCLib/src/xmc_usbd.c ****  *   may be used to endorse or promote products derived from this software without
  24:/opt/XMClib/XMC_Peripheral_Library_v2.1.16/XMCLib/src/xmc_usbd.c ****  *   specific prior written permission.                                           
  25:/opt/XMClib/XMC_Peripheral_Library_v2.1.16/XMCLib/src/xmc_usbd.c ****  *                                                                              
  26:/opt/XMClib/XMC_Peripheral_Library_v2.1.16/XMCLib/src/xmc_usbd.c ****  * THIS SOFTWARE IS PROVIDED BY THE COPYRIGHT HOLDERS AND CONTRIBUTORS "AS IS"  
  27:/opt/XMClib/XMC_Peripheral_Library_v2.1.16/XMCLib/src/xmc_usbd.c ****  * AND ANY EXPRESS OR IMPLIED WARRANTIES, INCLUDING, BUT NOT LIMITED TO, THE    
  28:/opt/XMClib/XMC_Peripheral_Library_v2.1.16/XMCLib/src/xmc_usbd.c ****  * IMPLIED WARRANTIES OF MERCHANTABILITY AND FITNESS FOR A PARTICULAR PURPOSE   
  29:/opt/XMClib/XMC_Peripheral_Library_v2.1.16/XMCLib/src/xmc_usbd.c ****  * ARE  DISCLAIMED. IN NO EVENT SHALL THE COPYRIGHT HOLDER OR CONTRIBUTORS BE   
  30:/opt/XMClib/XMC_Peripheral_Library_v2.1.16/XMCLib/src/xmc_usbd.c ****  * LIABLE  FOR ANY DIRECT, INDIRECT, INCIDENTAL, SPECIAL, EXEMPLARY, OR         
  31:/opt/XMClib/XMC_Peripheral_Library_v2.1.16/XMCLib/src/xmc_usbd.c ****  * CONSEQUENTIAL DAMAGES (INCLUDING, BUT NOT LIMITED TO, PROCUREMENT OF         
  32:/opt/XMClib/XMC_Peripheral_Library_v2.1.16/XMCLib/src/xmc_usbd.c ****  * SUBSTITUTE GOODS OR  SERVICES; LOSS OF USE, DATA, OR PROFITS; OR BUSINESS    
  33:/opt/XMClib/XMC_Peripheral_Library_v2.1.16/XMCLib/src/xmc_usbd.c ****  * INTERRUPTION) HOWEVER CAUSED AND ON ANY THEORY OF LIABILITY, WHETHER IN      
  34:/opt/XMClib/XMC_Peripheral_Library_v2.1.16/XMCLib/src/xmc_usbd.c ****  * CONTRACT, STRICT LIABILITY,OR TORT (INCLUDING NEGLIGENCE OR OTHERWISE)       
  35:/opt/XMClib/XMC_Peripheral_Library_v2.1.16/XMCLib/src/xmc_usbd.c ****  * ARISING IN ANY WAY OUT OF THE USE OF THIS SOFTWARE, EVEN IF ADVISED OF THE   
  36:/opt/XMClib/XMC_Peripheral_Library_v2.1.16/XMCLib/src/xmc_usbd.c ****  * POSSIBILITY OF SUCH DAMAGE.                                                  
  37:/opt/XMClib/XMC_Peripheral_Library_v2.1.16/XMCLib/src/xmc_usbd.c ****  *                                                                              
  38:/opt/XMClib/XMC_Peripheral_Library_v2.1.16/XMCLib/src/xmc_usbd.c ****  * To improve the quality of the software, users are encouraged to share        
  39:/opt/XMClib/XMC_Peripheral_Library_v2.1.16/XMCLib/src/xmc_usbd.c ****  * modifications, enhancements or bug fixes with Infineon Technologies AG       
  40:/opt/XMClib/XMC_Peripheral_Library_v2.1.16/XMCLib/src/xmc_usbd.c ****  * dave@infineon.com).                                                          
  41:/opt/XMClib/XMC_Peripheral_Library_v2.1.16/XMCLib/src/xmc_usbd.c ****  **********************************************************************************
  42:/opt/XMClib/XMC_Peripheral_Library_v2.1.16/XMCLib/src/xmc_usbd.c ****  *
  43:/opt/XMClib/XMC_Peripheral_Library_v2.1.16/XMCLib/src/xmc_usbd.c ****  * Change History
  44:/opt/XMClib/XMC_Peripheral_Library_v2.1.16/XMCLib/src/xmc_usbd.c ****  * --------------
  45:/opt/XMClib/XMC_Peripheral_Library_v2.1.16/XMCLib/src/xmc_usbd.c ****  *
  46:/opt/XMClib/XMC_Peripheral_Library_v2.1.16/XMCLib/src/xmc_usbd.c ****  * 2015-02-16:
  47:/opt/XMClib/XMC_Peripheral_Library_v2.1.16/XMCLib/src/xmc_usbd.c ****  *     - Initial Version.<br>           
  48:/opt/XMClib/XMC_Peripheral_Library_v2.1.16/XMCLib/src/xmc_usbd.c ****  * 2015-03-18:
  49:/opt/XMClib/XMC_Peripheral_Library_v2.1.16/XMCLib/src/xmc_usbd.c ****  *     - Updated the XMC_USBD_EndpointStall() to fix issue on USB clear stall. <br>
  50:/opt/XMClib/XMC_Peripheral_Library_v2.1.16/XMCLib/src/xmc_usbd.c ****  *     - Updated the XMC_USBD_EndpointConfigure() to fix issue in EP0 configuration.<br>
  51:/opt/XMClib/XMC_Peripheral_Library_v2.1.16/XMCLib/src/xmc_usbd.c ****  *     - Updated the XMC_USBD_IRQHandler()(Removed the DAVE_CE check on SOF event).<br>
  52:/opt/XMClib/XMC_Peripheral_Library_v2.1.16/XMCLib/src/xmc_usbd.c ****  * 2015-06-20:
  53:/opt/XMClib/XMC_Peripheral_Library_v2.1.16/XMCLib/src/xmc_usbd.c ****  *     - Removed GetDriverVersion API.<br>
  54:/opt/XMClib/XMC_Peripheral_Library_v2.1.16/XMCLib/src/xmc_usbd.c ****  *     - Updated the XMC_USBD_IsEnumDone() API.<br>
  55:/opt/XMClib/XMC_Peripheral_Library_v2.1.16/XMCLib/src/xmc_usbd.c ****  *     - Updated the copy right in the file header.<br>
  56:/opt/XMClib/XMC_Peripheral_Library_v2.1.16/XMCLib/src/xmc_usbd.c ****  *     - Updated the XMC_USBD_Disable() API to gate the clock after programming the SCU registers.<
  57:/opt/XMClib/XMC_Peripheral_Library_v2.1.16/XMCLib/src/xmc_usbd.c ****  *
  58:/opt/XMClib/XMC_Peripheral_Library_v2.1.16/XMCLib/src/xmc_usbd.c ****  * @endcond 
  59:/opt/XMClib/XMC_Peripheral_Library_v2.1.16/XMCLib/src/xmc_usbd.c ****  *
  60:/opt/XMClib/XMC_Peripheral_Library_v2.1.16/XMCLib/src/xmc_usbd.c ****  */
  61:/opt/XMClib/XMC_Peripheral_Library_v2.1.16/XMCLib/src/xmc_usbd.c **** 
  62:/opt/XMClib/XMC_Peripheral_Library_v2.1.16/XMCLib/src/xmc_usbd.c **** 
  63:/opt/XMClib/XMC_Peripheral_Library_v2.1.16/XMCLib/src/xmc_usbd.c **** /*******************************************************************************
  64:/opt/XMClib/XMC_Peripheral_Library_v2.1.16/XMCLib/src/xmc_usbd.c ****  * HEADER FILES
  65:/opt/XMClib/XMC_Peripheral_Library_v2.1.16/XMCLib/src/xmc_usbd.c ****  *******************************************************************************/
  66:/opt/XMClib/XMC_Peripheral_Library_v2.1.16/XMCLib/src/xmc_usbd.c **** #include <xmc_usbd.h>
  67:/opt/XMClib/XMC_Peripheral_Library_v2.1.16/XMCLib/src/xmc_usbd.c **** 
  68:/opt/XMClib/XMC_Peripheral_Library_v2.1.16/XMCLib/src/xmc_usbd.c **** #if defined(USB0)
  69:/opt/XMClib/XMC_Peripheral_Library_v2.1.16/XMCLib/src/xmc_usbd.c **** 	
  70:/opt/XMClib/XMC_Peripheral_Library_v2.1.16/XMCLib/src/xmc_usbd.c **** /**< macro to check the maximum number of endpoints used*/
  71:/opt/XMClib/XMC_Peripheral_Library_v2.1.16/XMCLib/src/xmc_usbd.c **** #define XMC_USBD_CHECK_INPUT_MAX_NUM_EPS(usbd_max_num_eps) \
  72:/opt/XMClib/XMC_Peripheral_Library_v2.1.16/XMCLib/src/xmc_usbd.c ****   ((usbd_max_num_eps ==  XMC_USBD_MAX_NUM_EPS_1 ) || \
  73:/opt/XMClib/XMC_Peripheral_Library_v2.1.16/XMCLib/src/xmc_usbd.c ****    (usbd_max_num_eps ==  XMC_USBD_MAX_NUM_EPS_2 ) || \
  74:/opt/XMClib/XMC_Peripheral_Library_v2.1.16/XMCLib/src/xmc_usbd.c ****    (usbd_max_num_eps ==  XMC_USBD_MAX_NUM_EPS_3 ) || \
  75:/opt/XMClib/XMC_Peripheral_Library_v2.1.16/XMCLib/src/xmc_usbd.c ****    (usbd_max_num_eps ==  XMC_USBD_MAX_NUM_EPS_4 ) || \
  76:/opt/XMClib/XMC_Peripheral_Library_v2.1.16/XMCLib/src/xmc_usbd.c ****    (usbd_max_num_eps ==  XMC_USBD_MAX_NUM_EPS_5 ) || \
  77:/opt/XMClib/XMC_Peripheral_Library_v2.1.16/XMCLib/src/xmc_usbd.c ****    (usbd_max_num_eps ==  XMC_USBD_MAX_NUM_EPS_6 ) || \
  78:/opt/XMClib/XMC_Peripheral_Library_v2.1.16/XMCLib/src/xmc_usbd.c ****    (usbd_max_num_eps == XMC_USBD_MAX_NUM_EPS_7 ))
  79:/opt/XMClib/XMC_Peripheral_Library_v2.1.16/XMCLib/src/xmc_usbd.c **** 
  80:/opt/XMClib/XMC_Peripheral_Library_v2.1.16/XMCLib/src/xmc_usbd.c **** /*******************************************************************************
  81:/opt/XMClib/XMC_Peripheral_Library_v2.1.16/XMCLib/src/xmc_usbd.c ****  *GLOBAL DATA
  82:/opt/XMClib/XMC_Peripheral_Library_v2.1.16/XMCLib/src/xmc_usbd.c ****  *******************************************************************************/
  83:/opt/XMClib/XMC_Peripheral_Library_v2.1.16/XMCLib/src/xmc_usbd.c **** /*
  84:/opt/XMClib/XMC_Peripheral_Library_v2.1.16/XMCLib/src/xmc_usbd.c ****  * Endpoint Out Fifo Size
  85:/opt/XMClib/XMC_Peripheral_Library_v2.1.16/XMCLib/src/xmc_usbd.c ****  */
  86:/opt/XMClib/XMC_Peripheral_Library_v2.1.16/XMCLib/src/xmc_usbd.c **** uint32_t XMC_USBD_EP_OUT_BUFFERSIZE[7] = {0U,0U,0U,0U,0U,0U,0U};
  87:/opt/XMClib/XMC_Peripheral_Library_v2.1.16/XMCLib/src/xmc_usbd.c **** /*
  88:/opt/XMClib/XMC_Peripheral_Library_v2.1.16/XMCLib/src/xmc_usbd.c ****  * Endpoint In Fifo Size
  89:/opt/XMClib/XMC_Peripheral_Library_v2.1.16/XMCLib/src/xmc_usbd.c ****  */
  90:/opt/XMClib/XMC_Peripheral_Library_v2.1.16/XMCLib/src/xmc_usbd.c **** uint32_t XMC_USBD_EP_IN_BUFFERSIZE[7] = {0U,0U,0U,0U,0U,0U,0U};
  91:/opt/XMClib/XMC_Peripheral_Library_v2.1.16/XMCLib/src/xmc_usbd.c **** /*
  92:/opt/XMClib/XMC_Peripheral_Library_v2.1.16/XMCLib/src/xmc_usbd.c ****  * Device definition
  93:/opt/XMClib/XMC_Peripheral_Library_v2.1.16/XMCLib/src/xmc_usbd.c ****  */
  94:/opt/XMClib/XMC_Peripheral_Library_v2.1.16/XMCLib/src/xmc_usbd.c ****  XMC_USBD_DEVICE_t xmc_device;
  95:/opt/XMClib/XMC_Peripheral_Library_v2.1.16/XMCLib/src/xmc_usbd.c **** #ifdef __GNUC__															  /*GCC*/
  96:/opt/XMClib/XMC_Peripheral_Library_v2.1.16/XMCLib/src/xmc_usbd.c **** /*
  97:/opt/XMClib/XMC_Peripheral_Library_v2.1.16/XMCLib/src/xmc_usbd.c ****  * Endpoint Out Fifo
  98:/opt/XMClib/XMC_Peripheral_Library_v2.1.16/XMCLib/src/xmc_usbd.c ****  */
  99:/opt/XMClib/XMC_Peripheral_Library_v2.1.16/XMCLib/src/xmc_usbd.c **** static __attribute__((aligned(4))) uint8_t XMC_USBD_EP_OUT_BUFFER[7][256] __attribute__((section("U
 100:/opt/XMClib/XMC_Peripheral_Library_v2.1.16/XMCLib/src/xmc_usbd.c **** /*
 101:/opt/XMClib/XMC_Peripheral_Library_v2.1.16/XMCLib/src/xmc_usbd.c ****  * Endpoint In Fifo
 102:/opt/XMClib/XMC_Peripheral_Library_v2.1.16/XMCLib/src/xmc_usbd.c ****  */
 103:/opt/XMClib/XMC_Peripheral_Library_v2.1.16/XMCLib/src/xmc_usbd.c **** static __attribute__((aligned(4))) uint8_t XMC_USBD_EP_IN_BUFFER[7][256] __attribute__((section("US
 104:/opt/XMClib/XMC_Peripheral_Library_v2.1.16/XMCLib/src/xmc_usbd.c **** #endif
 105:/opt/XMClib/XMC_Peripheral_Library_v2.1.16/XMCLib/src/xmc_usbd.c **** #if defined(__ICCARM__)
 106:/opt/XMClib/XMC_Peripheral_Library_v2.1.16/XMCLib/src/xmc_usbd.c **** #pragma data_alignment=4
 107:/opt/XMClib/XMC_Peripheral_Library_v2.1.16/XMCLib/src/xmc_usbd.c **** /*
 108:/opt/XMClib/XMC_Peripheral_Library_v2.1.16/XMCLib/src/xmc_usbd.c ****  * Endpoint Out Fifo
 109:/opt/XMClib/XMC_Peripheral_Library_v2.1.16/XMCLib/src/xmc_usbd.c ****  */
 110:/opt/XMClib/XMC_Peripheral_Library_v2.1.16/XMCLib/src/xmc_usbd.c **** static uint8_t XMC_USBD_EP_OUT_BUFFER[7][256] @ ".dram";
 111:/opt/XMClib/XMC_Peripheral_Library_v2.1.16/XMCLib/src/xmc_usbd.c **** /*
 112:/opt/XMClib/XMC_Peripheral_Library_v2.1.16/XMCLib/src/xmc_usbd.c ****  * Endpoint In Fifo
 113:/opt/XMClib/XMC_Peripheral_Library_v2.1.16/XMCLib/src/xmc_usbd.c ****  */
 114:/opt/XMClib/XMC_Peripheral_Library_v2.1.16/XMCLib/src/xmc_usbd.c **** #pragma data_alignment=4
 115:/opt/XMClib/XMC_Peripheral_Library_v2.1.16/XMCLib/src/xmc_usbd.c **** static uint8_t XMC_USBD_EP_IN_BUFFER[7][256] @ ".dram";
 116:/opt/XMClib/XMC_Peripheral_Library_v2.1.16/XMCLib/src/xmc_usbd.c **** #endif
 117:/opt/XMClib/XMC_Peripheral_Library_v2.1.16/XMCLib/src/xmc_usbd.c **** #if defined(__CC_ARM)
 118:/opt/XMClib/XMC_Peripheral_Library_v2.1.16/XMCLib/src/xmc_usbd.c **** /*
 119:/opt/XMClib/XMC_Peripheral_Library_v2.1.16/XMCLib/src/xmc_usbd.c ****  * Endpoint Out Fifo
 120:/opt/XMClib/XMC_Peripheral_Library_v2.1.16/XMCLib/src/xmc_usbd.c ****  */
 121:/opt/XMClib/XMC_Peripheral_Library_v2.1.16/XMCLib/src/xmc_usbd.c **** static __attribute__((aligned(4))) uint8_t XMC_USBD_EP_OUT_BUFFER[7][256] __attribute__((section ("
 122:/opt/XMClib/XMC_Peripheral_Library_v2.1.16/XMCLib/src/xmc_usbd.c **** /*
 123:/opt/XMClib/XMC_Peripheral_Library_v2.1.16/XMCLib/src/xmc_usbd.c ****  * Endpoint In Fifo
 124:/opt/XMClib/XMC_Peripheral_Library_v2.1.16/XMCLib/src/xmc_usbd.c ****  */
 125:/opt/XMClib/XMC_Peripheral_Library_v2.1.16/XMCLib/src/xmc_usbd.c **** static __attribute__((aligned(4))) uint8_t XMC_USBD_EP_IN_BUFFER[7][256] __attribute__((section ("R
 126:/opt/XMClib/XMC_Peripheral_Library_v2.1.16/XMCLib/src/xmc_usbd.c **** #endif
 127:/opt/XMClib/XMC_Peripheral_Library_v2.1.16/XMCLib/src/xmc_usbd.c **** XMC_USBD_t *usbd_init;
 128:/opt/XMClib/XMC_Peripheral_Library_v2.1.16/XMCLib/src/xmc_usbd.c **** 
 129:/opt/XMClib/XMC_Peripheral_Library_v2.1.16/XMCLib/src/xmc_usbd.c **** /*******************************************************************************
 130:/opt/XMClib/XMC_Peripheral_Library_v2.1.16/XMCLib/src/xmc_usbd.c ****  *LOCAL ROUTINES
 131:/opt/XMClib/XMC_Peripheral_Library_v2.1.16/XMCLib/src/xmc_usbd.c ****  *******************************************************************************/
 132:/opt/XMClib/XMC_Peripheral_Library_v2.1.16/XMCLib/src/xmc_usbd.c **** /*Local routines prototypes*/
 133:/opt/XMClib/XMC_Peripheral_Library_v2.1.16/XMCLib/src/xmc_usbd.c **** uint8_t XMC_USBD_lDeviceActive(const XMC_USBD_t *const obj);
 134:/opt/XMClib/XMC_Peripheral_Library_v2.1.16/XMCLib/src/xmc_usbd.c **** static void XMC_USBD_lReadFifo(const uint32_t ep_num,const uint32_t byte_count);
 135:/opt/XMClib/XMC_Peripheral_Library_v2.1.16/XMCLib/src/xmc_usbd.c **** static uint32_t XMC_USBD_lWriteFifo(XMC_USBD_EP_t *ep);
 136:/opt/XMClib/XMC_Peripheral_Library_v2.1.16/XMCLib/src/xmc_usbd.c **** static void XMC_USBD_lFlushTXFifo(const uint8_t fifo_num);
 137:/opt/XMClib/XMC_Peripheral_Library_v2.1.16/XMCLib/src/xmc_usbd.c **** static void XMC_USBD_lFlushRXFifo(void);
 138:/opt/XMClib/XMC_Peripheral_Library_v2.1.16/XMCLib/src/xmc_usbd.c **** static uint8_t XMC_USBD_lAssignTXFifo(void);
 139:/opt/XMClib/XMC_Peripheral_Library_v2.1.16/XMCLib/src/xmc_usbd.c **** static void XMC_USBD_lStartReadXfer(XMC_USBD_EP_t *const ep);
 140:/opt/XMClib/XMC_Peripheral_Library_v2.1.16/XMCLib/src/xmc_usbd.c **** static void XMC_USBD_lStartWriteXfer(XMC_USBD_EP_t *const ep);
 141:/opt/XMClib/XMC_Peripheral_Library_v2.1.16/XMCLib/src/xmc_usbd.c **** static void XMC_USBD_lHandleEnumDone(void);
 142:/opt/XMClib/XMC_Peripheral_Library_v2.1.16/XMCLib/src/xmc_usbd.c **** static void XMC_USBD_lHandleOEPInt(const XMC_USBD_t *const obj);
 143:/opt/XMClib/XMC_Peripheral_Library_v2.1.16/XMCLib/src/xmc_usbd.c **** static void XMC_USBD_lHandleRxFLvl(void);
 144:/opt/XMClib/XMC_Peripheral_Library_v2.1.16/XMCLib/src/xmc_usbd.c **** static void XMC_USBD_lHandleIEPInt(const XMC_USBD_t *const obj);
 145:/opt/XMClib/XMC_Peripheral_Library_v2.1.16/XMCLib/src/xmc_usbd.c **** static void XMC_USBD_lUnassignFifo(const uint8_t fifo_nr);
 146:/opt/XMClib/XMC_Peripheral_Library_v2.1.16/XMCLib/src/xmc_usbd.c **** static void XMC_USBD_lHandleUSBReset(const XMC_USBD_t *const obj);
 147:/opt/XMClib/XMC_Peripheral_Library_v2.1.16/XMCLib/src/xmc_usbd.c **** static void XMC_USBD_lHandleOTGInt(void);
 148:/opt/XMClib/XMC_Peripheral_Library_v2.1.16/XMCLib/src/xmc_usbd.c **** static void XMC_USBD_lClearEventOTG(uint32_t event);
 149:/opt/XMClib/XMC_Peripheral_Library_v2.1.16/XMCLib/src/xmc_usbd.c **** 
 150:/opt/XMClib/XMC_Peripheral_Library_v2.1.16/XMCLib/src/xmc_usbd.c **** /**
 151:/opt/XMClib/XMC_Peripheral_Library_v2.1.16/XMCLib/src/xmc_usbd.c ****  *  The device driver
 152:/opt/XMClib/XMC_Peripheral_Library_v2.1.16/XMCLib/src/xmc_usbd.c ****  */
 153:/opt/XMClib/XMC_Peripheral_Library_v2.1.16/XMCLib/src/xmc_usbd.c **** const XMC_USBD_DRIVER_t Driver_USBD0 =
 154:/opt/XMClib/XMC_Peripheral_Library_v2.1.16/XMCLib/src/xmc_usbd.c **** {
 155:/opt/XMClib/XMC_Peripheral_Library_v2.1.16/XMCLib/src/xmc_usbd.c ****   .GetCapabilities = XMC_USBD_GetCapabilities,
 156:/opt/XMClib/XMC_Peripheral_Library_v2.1.16/XMCLib/src/xmc_usbd.c ****   .Initialize = XMC_USBD_Init,
 157:/opt/XMClib/XMC_Peripheral_Library_v2.1.16/XMCLib/src/xmc_usbd.c ****   .Uninitialize = XMC_USBD_Uninitialize,
 158:/opt/XMClib/XMC_Peripheral_Library_v2.1.16/XMCLib/src/xmc_usbd.c ****   .DeviceConnect = XMC_USBD_DeviceConnect,
 159:/opt/XMClib/XMC_Peripheral_Library_v2.1.16/XMCLib/src/xmc_usbd.c ****   .DeviceDisconnect = XMC_USBD_DeviceDisconnect,
 160:/opt/XMClib/XMC_Peripheral_Library_v2.1.16/XMCLib/src/xmc_usbd.c ****   .DeviceGetState = XMC_USBD_DeviceGetState,
 161:/opt/XMClib/XMC_Peripheral_Library_v2.1.16/XMCLib/src/xmc_usbd.c ****   .DeviceSetAddress = XMC_USBD_DeviceSetAddress,
 162:/opt/XMClib/XMC_Peripheral_Library_v2.1.16/XMCLib/src/xmc_usbd.c ****   .EndpointConfigure = XMC_USBD_EndpointConfigure,
 163:/opt/XMClib/XMC_Peripheral_Library_v2.1.16/XMCLib/src/xmc_usbd.c ****   .EndpointUnconfigure = XMC_USBD_EndpointUnconfigure,
 164:/opt/XMClib/XMC_Peripheral_Library_v2.1.16/XMCLib/src/xmc_usbd.c ****   .EndpointStall = XMC_USBD_EndpointStall,
 165:/opt/XMClib/XMC_Peripheral_Library_v2.1.16/XMCLib/src/xmc_usbd.c ****   .EndpointReadStart = XMC_USBD_EndpointReadStart,
 166:/opt/XMClib/XMC_Peripheral_Library_v2.1.16/XMCLib/src/xmc_usbd.c ****   .EndpointRead = XMC_USBD_EndpointRead,
 167:/opt/XMClib/XMC_Peripheral_Library_v2.1.16/XMCLib/src/xmc_usbd.c ****   .EndpointWrite = XMC_USBD_EndpointWrite,
 168:/opt/XMClib/XMC_Peripheral_Library_v2.1.16/XMCLib/src/xmc_usbd.c ****   .EndpointAbort = XMC_USBD_EndpointAbort,
 169:/opt/XMClib/XMC_Peripheral_Library_v2.1.16/XMCLib/src/xmc_usbd.c ****   .GetFrameNumber = XMC_USBD_GetFrameNumber,
 170:/opt/XMClib/XMC_Peripheral_Library_v2.1.16/XMCLib/src/xmc_usbd.c ****   .IsEnumDone = XMC_USBD_IsEnumDone
 171:/opt/XMClib/XMC_Peripheral_Library_v2.1.16/XMCLib/src/xmc_usbd.c **** };
 172:/opt/XMClib/XMC_Peripheral_Library_v2.1.16/XMCLib/src/xmc_usbd.c **** 
 173:/opt/XMClib/XMC_Peripheral_Library_v2.1.16/XMCLib/src/xmc_usbd.c **** /**
 174:/opt/XMClib/XMC_Peripheral_Library_v2.1.16/XMCLib/src/xmc_usbd.c ****  * @brief Checks if device is active
 175:/opt/XMClib/XMC_Peripheral_Library_v2.1.16/XMCLib/src/xmc_usbd.c ****  *
 176:/opt/XMClib/XMC_Peripheral_Library_v2.1.16/XMCLib/src/xmc_usbd.c ****  * Therefore the endpoint inInUse flag are checked and if one endpoint is in use, 1 is returned,
 177:/opt/XMClib/XMC_Peripheral_Library_v2.1.16/XMCLib/src/xmc_usbd.c ****  * else 0 is returned.
 178:/opt/XMClib/XMC_Peripheral_Library_v2.1.16/XMCLib/src/xmc_usbd.c ****  * @return 1 if an endpoint is active else 0
 179:/opt/XMClib/XMC_Peripheral_Library_v2.1.16/XMCLib/src/xmc_usbd.c ****  */
 180:/opt/XMClib/XMC_Peripheral_Library_v2.1.16/XMCLib/src/xmc_usbd.c **** uint8_t XMC_USBD_lDeviceActive(const XMC_USBD_t *const obj) 
 181:/opt/XMClib/XMC_Peripheral_Library_v2.1.16/XMCLib/src/xmc_usbd.c **** {
  75              		.loc 1 181 0
  76              		.cfi_startproc
  77              		@ args = 0, pretend = 0, frame = 16
  78              		@ frame_needed = 1, uses_anonymous_args = 0
  79              		@ link register save eliminated.
  80 0000 80B4     		push	{r7}
  81              	.LCFI0:
  82              		.cfi_def_cfa_offset 4
  83              		.cfi_offset 7, -4
  84 0002 85B0     		sub	sp, sp, #20
  85              	.LCFI1:
  86              		.cfi_def_cfa_offset 24
  87 0004 00AF     		add	r7, sp, #0
  88              	.LCFI2:
  89              		.cfi_def_cfa_register 7
  90 0006 7860     		str	r0, [r7, #4]
 182:/opt/XMClib/XMC_Peripheral_Library_v2.1.16/XMCLib/src/xmc_usbd.c ****   uint8_t i;
 183:/opt/XMClib/XMC_Peripheral_Library_v2.1.16/XMCLib/src/xmc_usbd.c ****   uint8_t result = 0U;
  91              		.loc 1 183 0
  92 0008 0023     		movs	r3, #0
  93 000a BB73     		strb	r3, [r7, #14]
 184:/opt/XMClib/XMC_Peripheral_Library_v2.1.16/XMCLib/src/xmc_usbd.c ****   for (i = 0U; i < (uint8_t)obj->usbd_max_num_eps; i++)
  94              		.loc 1 184 0
  95 000c 0023     		movs	r3, #0
  96 000e FB73     		strb	r3, [r7, #15]
  97 0010 1CE0     		b	.L2
  98              	.L5:
 185:/opt/XMClib/XMC_Peripheral_Library_v2.1.16/XMCLib/src/xmc_usbd.c ****   {
 186:/opt/XMClib/XMC_Peripheral_Library_v2.1.16/XMCLib/src/xmc_usbd.c ****     if (xmc_device.ep[i].inInUse || xmc_device.ep[i].outInUse)
  99              		.loc 1 186 0
 100 0012 FB7B     		ldrb	r3, [r7, #15]	@ zero_extendqisi2
 101 0014 134A     		ldr	r2, .L7
 102 0016 3421     		movs	r1, #52
 103 0018 01FB03F3 		mul	r3, r1, r3
 104 001c 1344     		add	r3, r3, r2
 105 001e 5B68     		ldr	r3, [r3, #4]
 106 0020 C3F3C003 		ubfx	r3, r3, #3, #1
 107 0024 DBB2     		uxtb	r3, r3
 108 0026 002B     		cmp	r3, #0
 109 0028 0BD1     		bne	.L3
 110              		.loc 1 186 0 is_stmt 0 discriminator 1
 111 002a FB7B     		ldrb	r3, [r7, #15]	@ zero_extendqisi2
 112 002c 0D4A     		ldr	r2, .L7
 113 002e 3421     		movs	r1, #52
 114 0030 01FB03F3 		mul	r3, r1, r3
 115 0034 1344     		add	r3, r3, r2
 116 0036 5B68     		ldr	r3, [r3, #4]
 117 0038 C3F30013 		ubfx	r3, r3, #4, #1
 118 003c DBB2     		uxtb	r3, r3
 119 003e 002B     		cmp	r3, #0
 120 0040 01D0     		beq	.L4
 121              	.L3:
 187:/opt/XMClib/XMC_Peripheral_Library_v2.1.16/XMCLib/src/xmc_usbd.c ****     {
 188:/opt/XMClib/XMC_Peripheral_Library_v2.1.16/XMCLib/src/xmc_usbd.c ****       result = 1U;
 122              		.loc 1 188 0 is_stmt 1
 123 0042 0123     		movs	r3, #1
 124 0044 BB73     		strb	r3, [r7, #14]
 125              	.L4:
 184:/opt/XMClib/XMC_Peripheral_Library_v2.1.16/XMCLib/src/xmc_usbd.c ****   {
 126              		.loc 1 184 0 discriminator 2
 127 0046 FB7B     		ldrb	r3, [r7, #15]	@ zero_extendqisi2
 128 0048 0133     		adds	r3, r3, #1
 129 004a FB73     		strb	r3, [r7, #15]
 130              	.L2:
 184:/opt/XMClib/XMC_Peripheral_Library_v2.1.16/XMCLib/src/xmc_usbd.c ****   {
 131              		.loc 1 184 0 is_stmt 0 discriminator 1
 132 004c 7B68     		ldr	r3, [r7, #4]
 133 004e 1B7B     		ldrb	r3, [r3, #12]	@ zero_extendqisi2
 134 0050 FA7B     		ldrb	r2, [r7, #15]	@ zero_extendqisi2
 135 0052 9A42     		cmp	r2, r3
 136 0054 DDD3     		bcc	.L5
 189:/opt/XMClib/XMC_Peripheral_Library_v2.1.16/XMCLib/src/xmc_usbd.c ****     }
 190:/opt/XMClib/XMC_Peripheral_Library_v2.1.16/XMCLib/src/xmc_usbd.c ****   }
 191:/opt/XMClib/XMC_Peripheral_Library_v2.1.16/XMCLib/src/xmc_usbd.c ****   return result;
 137              		.loc 1 191 0 is_stmt 1
 138 0056 BB7B     		ldrb	r3, [r7, #14]	@ zero_extendqisi2
 192:/opt/XMClib/XMC_Peripheral_Library_v2.1.16/XMCLib/src/xmc_usbd.c **** }
 139              		.loc 1 192 0
 140 0058 1846     		mov	r0, r3
 141 005a 1437     		adds	r7, r7, #20
 142              	.LCFI3:
 143              		.cfi_def_cfa_offset 4
 144 005c BD46     		mov	sp, r7
 145              	.LCFI4:
 146              		.cfi_def_cfa_register 13
 147              		@ sp needed
 148 005e 5DF8047B 		ldr	r7, [sp], #4
 149              	.LCFI5:
 150              		.cfi_restore 7
 151              		.cfi_def_cfa_offset 0
 152 0062 7047     		bx	lr
 153              	.L8:
 154              		.align	2
 155              	.L7:
 156 0064 00000000 		.word	xmc_device
 157              		.cfi_endproc
 158              	.LFE162:
 160              		.section	.text.XMC_USBD_lReadFifo,"ax",%progbits
 161              		.align	1
 162              		.syntax unified
 163              		.thumb
 164              		.thumb_func
 165              		.fpu fpv4-sp-d16
 167              	XMC_USBD_lReadFifo:
 168              	.LFB163:
 193:/opt/XMClib/XMC_Peripheral_Library_v2.1.16/XMCLib/src/xmc_usbd.c **** 
 194:/opt/XMClib/XMC_Peripheral_Library_v2.1.16/XMCLib/src/xmc_usbd.c **** 
 195:/opt/XMClib/XMC_Peripheral_Library_v2.1.16/XMCLib/src/xmc_usbd.c **** /**
 196:/opt/XMClib/XMC_Peripheral_Library_v2.1.16/XMCLib/src/xmc_usbd.c ****  * @brief Read data from the rx fifo
 197:/opt/XMClib/XMC_Peripheral_Library_v2.1.16/XMCLib/src/xmc_usbd.c ****  *
 198:/opt/XMClib/XMC_Peripheral_Library_v2.1.16/XMCLib/src/xmc_usbd.c ****  * The data from the fifo is copied in to the buffer specified by @ref xfer_buffer and
 199:/opt/XMClib/XMC_Peripheral_Library_v2.1.16/XMCLib/src/xmc_usbd.c ****  * the transfer values get updated. If the endpoint is disabled or the buffer not existent
 200:/opt/XMClib/XMC_Peripheral_Library_v2.1.16/XMCLib/src/xmc_usbd.c ****  * the function exits.
 201:/opt/XMClib/XMC_Peripheral_Library_v2.1.16/XMCLib/src/xmc_usbd.c ****  *
 202:/opt/XMClib/XMC_Peripheral_Library_v2.1.16/XMCLib/src/xmc_usbd.c ****  * @arg ep_num the endpoint to read for
 203:/opt/XMClib/XMC_Peripheral_Library_v2.1.16/XMCLib/src/xmc_usbd.c ****  * @arg byte_count the byte count to read
 204:/opt/XMClib/XMC_Peripheral_Library_v2.1.16/XMCLib/src/xmc_usbd.c ****  */
 205:/opt/XMClib/XMC_Peripheral_Library_v2.1.16/XMCLib/src/xmc_usbd.c **** static void XMC_USBD_lReadFifo(const uint32_t ep_num,const uint32_t byte_count) 
 206:/opt/XMClib/XMC_Peripheral_Library_v2.1.16/XMCLib/src/xmc_usbd.c **** {
 169              		.loc 1 206 0
 170              		.cfi_startproc
 171              		@ args = 0, pretend = 0, frame = 40
 172              		@ frame_needed = 1, uses_anonymous_args = 0
 173              		@ link register save eliminated.
 174 0000 80B4     		push	{r7}
 175              	.LCFI6:
 176              		.cfi_def_cfa_offset 4
 177              		.cfi_offset 7, -4
 178 0002 8BB0     		sub	sp, sp, #44
 179              	.LCFI7:
 180              		.cfi_def_cfa_offset 48
 181 0004 00AF     		add	r7, sp, #0
 182              	.LCFI8:
 183              		.cfi_def_cfa_register 7
 184 0006 7860     		str	r0, [r7, #4]
 185 0008 3960     		str	r1, [r7]
 207:/opt/XMClib/XMC_Peripheral_Library_v2.1.16/XMCLib/src/xmc_usbd.c ****   XMC_USBD_EP_t * ep = &xmc_device.ep[ep_num];
 186              		.loc 1 207 0
 187 000a 7B68     		ldr	r3, [r7, #4]
 188 000c 3422     		movs	r2, #52
 189 000e 02FB03F3 		mul	r3, r2, r3
 190 0012 344A     		ldr	r2, .L17
 191 0014 1344     		add	r3, r3, r2
 192 0016 3B62     		str	r3, [r7, #32]
 208:/opt/XMClib/XMC_Peripheral_Library_v2.1.16/XMCLib/src/xmc_usbd.c ****   uint32_t word_count;
 209:/opt/XMClib/XMC_Peripheral_Library_v2.1.16/XMCLib/src/xmc_usbd.c ****   uint32_t temp_data;
 210:/opt/XMClib/XMC_Peripheral_Library_v2.1.16/XMCLib/src/xmc_usbd.c ****   uint32_t temp_word_count;
 211:/opt/XMClib/XMC_Peripheral_Library_v2.1.16/XMCLib/src/xmc_usbd.c ****   volatile uint32_t *fifo = xmc_device.fifo[0U];
 193              		.loc 1 211 0
 194 0018 324B     		ldr	r3, .L17
 195 001a D3F8E031 		ldr	r3, [r3, #480]
 196 001e FB61     		str	r3, [r7, #28]
 212:/opt/XMClib/XMC_Peripheral_Library_v2.1.16/XMCLib/src/xmc_usbd.c ****   uint32_t i;
 213:/opt/XMClib/XMC_Peripheral_Library_v2.1.16/XMCLib/src/xmc_usbd.c ****   depctl_data_t data;
 214:/opt/XMClib/XMC_Peripheral_Library_v2.1.16/XMCLib/src/xmc_usbd.c ****   data.d32 = xmc_device.endpoint_out_register[ep_num]->doepctl;
 197              		.loc 1 214 0
 198 0020 304A     		ldr	r2, .L17
 199 0022 7B68     		ldr	r3, [r7, #4]
 200 0024 7033     		adds	r3, r3, #112
 201 0026 9B00     		lsls	r3, r3, #2
 202 0028 1344     		add	r3, r3, r2
 203 002a 5B68     		ldr	r3, [r3, #4]
 204 002c 1B68     		ldr	r3, [r3]
 205 002e FB60     		str	r3, [r7, #12]
 215:/opt/XMClib/XMC_Peripheral_Library_v2.1.16/XMCLib/src/xmc_usbd.c ****   word_count = (byte_count >> 2U );
 206              		.loc 1 215 0
 207 0030 3B68     		ldr	r3, [r7]
 208 0032 9B08     		lsrs	r3, r3, #2
 209 0034 BB61     		str	r3, [r7, #24]
 216:/opt/XMClib/XMC_Peripheral_Library_v2.1.16/XMCLib/src/xmc_usbd.c ****   temp_word_count = (word_count << 2U);
 210              		.loc 1 216 0
 211 0036 BB69     		ldr	r3, [r7, #24]
 212 0038 9B00     		lsls	r3, r3, #2
 213 003a 7B61     		str	r3, [r7, #20]
 217:/opt/XMClib/XMC_Peripheral_Library_v2.1.16/XMCLib/src/xmc_usbd.c ****   /* Check if ep is enabled and has buffer */
 218:/opt/XMClib/XMC_Peripheral_Library_v2.1.16/XMCLib/src/xmc_usbd.c ****   if (!data.b.usbactep)
 214              		.loc 1 218 0
 215 003c 7B7B     		ldrb	r3, [r7, #13]	@ zero_extendqisi2
 216 003e 23F07F03 		bic	r3, r3, #127
 217 0042 DBB2     		uxtb	r3, r3
 218 0044 002B     		cmp	r3, #0
 219 0046 47D0     		beq	.L16
 219:/opt/XMClib/XMC_Peripheral_Library_v2.1.16/XMCLib/src/xmc_usbd.c ****   {
 220:/opt/XMClib/XMC_Peripheral_Library_v2.1.16/XMCLib/src/xmc_usbd.c ****     /*Do Nothing*/
 221:/opt/XMClib/XMC_Peripheral_Library_v2.1.16/XMCLib/src/xmc_usbd.c ****   }
 222:/opt/XMClib/XMC_Peripheral_Library_v2.1.16/XMCLib/src/xmc_usbd.c ****   else if (ep->xferBuffer == NULL)
 220              		.loc 1 222 0
 221 0048 3B6A     		ldr	r3, [r7, #32]
 222 004a 5B6A     		ldr	r3, [r3, #36]
 223 004c 002B     		cmp	r3, #0
 224 004e 43D0     		beq	.L16
 223:/opt/XMClib/XMC_Peripheral_Library_v2.1.16/XMCLib/src/xmc_usbd.c ****   {
 224:/opt/XMClib/XMC_Peripheral_Library_v2.1.16/XMCLib/src/xmc_usbd.c **** 	/*Do Nothing*/
 225:/opt/XMClib/XMC_Peripheral_Library_v2.1.16/XMCLib/src/xmc_usbd.c ****   }
 226:/opt/XMClib/XMC_Peripheral_Library_v2.1.16/XMCLib/src/xmc_usbd.c ****   else
 227:/opt/XMClib/XMC_Peripheral_Library_v2.1.16/XMCLib/src/xmc_usbd.c ****   {
 228:/opt/XMClib/XMC_Peripheral_Library_v2.1.16/XMCLib/src/xmc_usbd.c ****     /* store the data */
 229:/opt/XMClib/XMC_Peripheral_Library_v2.1.16/XMCLib/src/xmc_usbd.c ****     for (i = 0U;i < word_count; i++)
 225              		.loc 1 229 0
 226 0050 0023     		movs	r3, #0
 227 0052 7B62     		str	r3, [r7, #36]
 228 0054 0AE0     		b	.L11
 229              	.L12:
 230:/opt/XMClib/XMC_Peripheral_Library_v2.1.16/XMCLib/src/xmc_usbd.c ****     {
 231:/opt/XMClib/XMC_Peripheral_Library_v2.1.16/XMCLib/src/xmc_usbd.c ****       *(((uint32_t*)ep->xferBuffer)+i) = *fifo;
 230              		.loc 1 231 0 discriminator 3
 231 0056 3B6A     		ldr	r3, [r7, #32]
 232 0058 5A6A     		ldr	r2, [r3, #36]
 233 005a 7B6A     		ldr	r3, [r7, #36]
 234 005c 9B00     		lsls	r3, r3, #2
 235 005e 1344     		add	r3, r3, r2
 236 0060 FA69     		ldr	r2, [r7, #28]
 237 0062 1268     		ldr	r2, [r2]
 238 0064 1A60     		str	r2, [r3]
 229:/opt/XMClib/XMC_Peripheral_Library_v2.1.16/XMCLib/src/xmc_usbd.c ****     {
 239              		.loc 1 229 0 discriminator 3
 240 0066 7B6A     		ldr	r3, [r7, #36]
 241 0068 0133     		adds	r3, r3, #1
 242 006a 7B62     		str	r3, [r7, #36]
 243              	.L11:
 229:/opt/XMClib/XMC_Peripheral_Library_v2.1.16/XMCLib/src/xmc_usbd.c ****     {
 244              		.loc 1 229 0 is_stmt 0 discriminator 1
 245 006c 7A6A     		ldr	r2, [r7, #36]
 246 006e BB69     		ldr	r3, [r7, #24]
 247 0070 9A42     		cmp	r2, r3
 248 0072 F0D3     		bcc	.L12
 232:/opt/XMClib/XMC_Peripheral_Library_v2.1.16/XMCLib/src/xmc_usbd.c ****     }
 233:/opt/XMClib/XMC_Peripheral_Library_v2.1.16/XMCLib/src/xmc_usbd.c ****     /* space is not devidable by 4 */
 234:/opt/XMClib/XMC_Peripheral_Library_v2.1.16/XMCLib/src/xmc_usbd.c ****     if (byte_count!=temp_word_count)
 249              		.loc 1 234 0 is_stmt 1
 250 0074 3A68     		ldr	r2, [r7]
 251 0076 7B69     		ldr	r3, [r7, #20]
 252 0078 9A42     		cmp	r2, r3
 253 007a 21D0     		beq	.L13
 235:/opt/XMClib/XMC_Peripheral_Library_v2.1.16/XMCLib/src/xmc_usbd.c ****     {
 236:/opt/XMClib/XMC_Peripheral_Library_v2.1.16/XMCLib/src/xmc_usbd.c ****       temp_data = *fifo;
 254              		.loc 1 236 0
 255 007c FB69     		ldr	r3, [r7, #28]
 256 007e 1B68     		ldr	r3, [r3]
 257 0080 3B61     		str	r3, [r7, #16]
 237:/opt/XMClib/XMC_Peripheral_Library_v2.1.16/XMCLib/src/xmc_usbd.c ****       for (i = 0U;(temp_word_count + i) < byte_count;i++)
 258              		.loc 1 237 0
 259 0082 0023     		movs	r3, #0
 260 0084 7B62     		str	r3, [r7, #36]
 261 0086 15E0     		b	.L14
 262              	.L15:
 238:/opt/XMClib/XMC_Peripheral_Library_v2.1.16/XMCLib/src/xmc_usbd.c ****       {
 239:/opt/XMClib/XMC_Peripheral_Library_v2.1.16/XMCLib/src/xmc_usbd.c ****         ep->xferBuffer[(word_count << 2)+i] = (uint8_t)((temp_data & ((uint32_t)0xFFU << (i * 8U)))
 263              		.loc 1 239 0 discriminator 3
 264 0088 7B6A     		ldr	r3, [r7, #36]
 265 008a DB00     		lsls	r3, r3, #3
 266 008c FF22     		movs	r2, #255
 267 008e 9A40     		lsls	r2, r2, r3
 268 0090 3B69     		ldr	r3, [r7, #16]
 269 0092 1A40     		ands	r2, r2, r3
 270 0094 7B6A     		ldr	r3, [r7, #36]
 271 0096 DB00     		lsls	r3, r3, #3
 272 0098 22FA03F0 		lsr	r0, r2, r3
 273 009c 3B6A     		ldr	r3, [r7, #32]
 274 009e 5A6A     		ldr	r2, [r3, #36]
 275 00a0 BB69     		ldr	r3, [r7, #24]
 276 00a2 9900     		lsls	r1, r3, #2
 277 00a4 7B6A     		ldr	r3, [r7, #36]
 278 00a6 0B44     		add	r3, r3, r1
 279 00a8 1344     		add	r3, r3, r2
 280 00aa C2B2     		uxtb	r2, r0
 281 00ac 1A70     		strb	r2, [r3]
 237:/opt/XMClib/XMC_Peripheral_Library_v2.1.16/XMCLib/src/xmc_usbd.c ****       for (i = 0U;(temp_word_count + i) < byte_count;i++)
 282              		.loc 1 237 0 discriminator 3
 283 00ae 7B6A     		ldr	r3, [r7, #36]
 284 00b0 0133     		adds	r3, r3, #1
 285 00b2 7B62     		str	r3, [r7, #36]
 286              	.L14:
 237:/opt/XMClib/XMC_Peripheral_Library_v2.1.16/XMCLib/src/xmc_usbd.c ****       for (i = 0U;(temp_word_count + i) < byte_count;i++)
 287              		.loc 1 237 0 is_stmt 0 discriminator 1
 288 00b4 7A69     		ldr	r2, [r7, #20]
 289 00b6 7B6A     		ldr	r3, [r7, #36]
 290 00b8 1344     		add	r3, r3, r2
 291 00ba 3A68     		ldr	r2, [r7]
 292 00bc 9A42     		cmp	r2, r3
 293 00be E3D8     		bhi	.L15
 294              	.L13:
 240:/opt/XMClib/XMC_Peripheral_Library_v2.1.16/XMCLib/src/xmc_usbd.c ****       }
 241:/opt/XMClib/XMC_Peripheral_Library_v2.1.16/XMCLib/src/xmc_usbd.c ****     }
 242:/opt/XMClib/XMC_Peripheral_Library_v2.1.16/XMCLib/src/xmc_usbd.c **** 
 243:/opt/XMClib/XMC_Peripheral_Library_v2.1.16/XMCLib/src/xmc_usbd.c ****     /* save the amount of data */
 244:/opt/XMClib/XMC_Peripheral_Library_v2.1.16/XMCLib/src/xmc_usbd.c ****     ep->xferCount += byte_count;
 295              		.loc 1 244 0 is_stmt 1
 296 00c0 3B6A     		ldr	r3, [r7, #32]
 297 00c2 DA6A     		ldr	r2, [r3, #44]
 298 00c4 3B68     		ldr	r3, [r7]
 299 00c6 1A44     		add	r2, r2, r3
 300 00c8 3B6A     		ldr	r3, [r7, #32]
 301 00ca DA62     		str	r2, [r3, #44]
 245:/opt/XMClib/XMC_Peripheral_Library_v2.1.16/XMCLib/src/xmc_usbd.c ****     ep->xferBuffer += byte_count;
 302              		.loc 1 245 0
 303 00cc 3B6A     		ldr	r3, [r7, #32]
 304 00ce 5A6A     		ldr	r2, [r3, #36]
 305 00d0 3B68     		ldr	r3, [r7]
 306 00d2 1A44     		add	r2, r2, r3
 307 00d4 3B6A     		ldr	r3, [r7, #32]
 308 00d6 5A62     		str	r2, [r3, #36]
 309              	.L16:
 246:/opt/XMClib/XMC_Peripheral_Library_v2.1.16/XMCLib/src/xmc_usbd.c ****   }
 247:/opt/XMClib/XMC_Peripheral_Library_v2.1.16/XMCLib/src/xmc_usbd.c **** }
 310              		.loc 1 247 0
 311 00d8 00BF     		nop
 312 00da 2C37     		adds	r7, r7, #44
 313              	.LCFI9:
 314              		.cfi_def_cfa_offset 4
 315 00dc BD46     		mov	sp, r7
 316              	.LCFI10:
 317              		.cfi_def_cfa_register 13
 318              		@ sp needed
 319 00de 5DF8047B 		ldr	r7, [sp], #4
 320              	.LCFI11:
 321              		.cfi_restore 7
 322              		.cfi_def_cfa_offset 0
 323 00e2 7047     		bx	lr
 324              	.L18:
 325              		.align	2
 326              	.L17:
 327 00e4 00000000 		.word	xmc_device
 328              		.cfi_endproc
 329              	.LFE163:
 331              		.section	.text.XMC_USBD_lWriteFifo,"ax",%progbits
 332              		.align	1
 333              		.syntax unified
 334              		.thumb
 335              		.thumb_func
 336              		.fpu fpv4-sp-d16
 338              	XMC_USBD_lWriteFifo:
 339              	.LFB164:
 248:/opt/XMClib/XMC_Peripheral_Library_v2.1.16/XMCLib/src/xmc_usbd.c **** 
 249:/opt/XMClib/XMC_Peripheral_Library_v2.1.16/XMCLib/src/xmc_usbd.c **** /**
 250:/opt/XMClib/XMC_Peripheral_Library_v2.1.16/XMCLib/src/xmc_usbd.c ****  * @brief Write data to an endpoint fifo
 251:/opt/XMClib/XMC_Peripheral_Library_v2.1.16/XMCLib/src/xmc_usbd.c ****  *
 252:/opt/XMClib/XMC_Peripheral_Library_v2.1.16/XMCLib/src/xmc_usbd.c ****  * The data from the @ref xfer_buffer gets copied in to the tx fifo of the endpoint until the buffe
 253:/opt/XMClib/XMC_Peripheral_Library_v2.1.16/XMCLib/src/xmc_usbd.c ****  *completely or the tx fifo is full. The transfer values are not updated.
 254:/opt/XMClib/XMC_Peripheral_Library_v2.1.16/XMCLib/src/xmc_usbd.c ****  *
 255:/opt/XMClib/XMC_Peripheral_Library_v2.1.16/XMCLib/src/xmc_usbd.c ****  * @arg[in] ep the endpoint to use
 256:/opt/XMClib/XMC_Peripheral_Library_v2.1.16/XMCLib/src/xmc_usbd.c ****  * @return the number of bytes written to the fifo
 257:/opt/XMClib/XMC_Peripheral_Library_v2.1.16/XMCLib/src/xmc_usbd.c ****  */
 258:/opt/XMClib/XMC_Peripheral_Library_v2.1.16/XMCLib/src/xmc_usbd.c **** static uint32_t XMC_USBD_lWriteFifo(XMC_USBD_EP_t *const ep) 
 259:/opt/XMClib/XMC_Peripheral_Library_v2.1.16/XMCLib/src/xmc_usbd.c **** {
 340              		.loc 1 259 0
 341              		.cfi_startproc
 342              		@ args = 0, pretend = 0, frame = 32
 343              		@ frame_needed = 1, uses_anonymous_args = 0
 344              		@ link register save eliminated.
 345 0000 80B4     		push	{r7}
 346              	.LCFI12:
 347              		.cfi_def_cfa_offset 4
 348              		.cfi_offset 7, -4
 349 0002 89B0     		sub	sp, sp, #36
 350              	.LCFI13:
 351              		.cfi_def_cfa_offset 40
 352 0004 00AF     		add	r7, sp, #0
 353              	.LCFI14:
 354              		.cfi_def_cfa_register 7
 355 0006 7860     		str	r0, [r7, #4]
 260:/opt/XMClib/XMC_Peripheral_Library_v2.1.16/XMCLib/src/xmc_usbd.c ****   dtxfsts_data_t freeSpace; 
 261:/opt/XMClib/XMC_Peripheral_Library_v2.1.16/XMCLib/src/xmc_usbd.c ****   volatile uint32_t *fifo;
 262:/opt/XMClib/XMC_Peripheral_Library_v2.1.16/XMCLib/src/xmc_usbd.c ****   uint32_t byte_count;
 263:/opt/XMClib/XMC_Peripheral_Library_v2.1.16/XMCLib/src/xmc_usbd.c ****   uint32_t word_count;
 264:/opt/XMClib/XMC_Peripheral_Library_v2.1.16/XMCLib/src/xmc_usbd.c ****   uint32_t result;
 265:/opt/XMClib/XMC_Peripheral_Library_v2.1.16/XMCLib/src/xmc_usbd.c ****   uint32_t i;
 266:/opt/XMClib/XMC_Peripheral_Library_v2.1.16/XMCLib/src/xmc_usbd.c ****   fifo = xmc_device.fifo[ep->address_u.address_st.number]; /* fifo */
 356              		.loc 1 266 0
 357 0008 7B68     		ldr	r3, [r7, #4]
 358 000a 1B78     		ldrb	r3, [r3]
 359 000c C3F30303 		ubfx	r3, r3, #0, #4
 360 0010 DBB2     		uxtb	r3, r3
 361 0012 234A     		ldr	r2, .L26
 362 0014 7833     		adds	r3, r3, #120
 363 0016 52F82330 		ldr	r3, [r2, r3, lsl #2]
 364 001a FB60     		str	r3, [r7, #12]
 267:/opt/XMClib/XMC_Peripheral_Library_v2.1.16/XMCLib/src/xmc_usbd.c ****   freeSpace.d32 = xmc_device.endpoint_in_register[ep->address_u.address_st.number]->dtxfsts;
 365              		.loc 1 267 0
 366 001c 7B68     		ldr	r3, [r7, #4]
 367 001e 1B78     		ldrb	r3, [r3]
 368 0020 C3F30303 		ubfx	r3, r3, #0, #4
 369 0024 DBB2     		uxtb	r3, r3
 370 0026 1E4A     		ldr	r2, .L26
 371 0028 6A33     		adds	r3, r3, #106
 372 002a 52F82330 		ldr	r3, [r2, r3, lsl #2]
 373 002e 9B69     		ldr	r3, [r3, #24]
 374 0030 BB60     		str	r3, [r7, #8]
 268:/opt/XMClib/XMC_Peripheral_Library_v2.1.16/XMCLib/src/xmc_usbd.c ****   /* calculate the length and the amount of dwords to copy based on the fifo status */
 269:/opt/XMClib/XMC_Peripheral_Library_v2.1.16/XMCLib/src/xmc_usbd.c ****   byte_count = ep->xferLength - ep->xferCount;
 375              		.loc 1 269 0
 376 0032 7B68     		ldr	r3, [r7, #4]
 377 0034 9A6A     		ldr	r2, [r3, #40]
 378 0036 7B68     		ldr	r3, [r7, #4]
 379 0038 DB6A     		ldr	r3, [r3, #44]
 380 003a D31A     		subs	r3, r2, r3
 381 003c FB61     		str	r3, [r7, #28]
 270:/opt/XMClib/XMC_Peripheral_Library_v2.1.16/XMCLib/src/xmc_usbd.c ****   if (!byte_count)
 382              		.loc 1 270 0
 383 003e FB69     		ldr	r3, [r7, #28]
 384 0040 002B     		cmp	r3, #0
 385 0042 02D1     		bne	.L20
 271:/opt/XMClib/XMC_Peripheral_Library_v2.1.16/XMCLib/src/xmc_usbd.c ****   {
 272:/opt/XMClib/XMC_Peripheral_Library_v2.1.16/XMCLib/src/xmc_usbd.c ****     result = 0U;
 386              		.loc 1 272 0
 387 0044 0023     		movs	r3, #0
 388 0046 7B61     		str	r3, [r7, #20]
 389 0048 23E0     		b	.L21
 390              	.L20:
 273:/opt/XMClib/XMC_Peripheral_Library_v2.1.16/XMCLib/src/xmc_usbd.c ****   }
 274:/opt/XMClib/XMC_Peripheral_Library_v2.1.16/XMCLib/src/xmc_usbd.c ****   else
 275:/opt/XMClib/XMC_Peripheral_Library_v2.1.16/XMCLib/src/xmc_usbd.c ****   {
 276:/opt/XMClib/XMC_Peripheral_Library_v2.1.16/XMCLib/src/xmc_usbd.c ****     /* add the unaligned bytes to the word count to compare with the fifo space */
 277:/opt/XMClib/XMC_Peripheral_Library_v2.1.16/XMCLib/src/xmc_usbd.c ****     word_count = ((uint32_t)byte_count + 3U) >> 2U;
 391              		.loc 1 277 0
 392 004a FB69     		ldr	r3, [r7, #28]
 393 004c 0333     		adds	r3, r3, #3
 394 004e 9B08     		lsrs	r3, r3, #2
 395 0050 BB61     		str	r3, [r7, #24]
 278:/opt/XMClib/XMC_Peripheral_Library_v2.1.16/XMCLib/src/xmc_usbd.c ****     if (word_count > (uint32_t)freeSpace.b.txfspcavail )
 396              		.loc 1 278 0
 397 0052 3B89     		ldrh	r3, [r7, #8]
 398 0054 1A46     		mov	r2, r3
 399 0056 BB69     		ldr	r3, [r7, #24]
 400 0058 9342     		cmp	r3, r2
 401 005a 04D9     		bls	.L22
 279:/opt/XMClib/XMC_Peripheral_Library_v2.1.16/XMCLib/src/xmc_usbd.c ****     {
 280:/opt/XMClib/XMC_Peripheral_Library_v2.1.16/XMCLib/src/xmc_usbd.c ****       word_count = (uint32_t)freeSpace.b.txfspcavail;
 402              		.loc 1 280 0
 403 005c 3B89     		ldrh	r3, [r7, #8]
 404 005e BB61     		str	r3, [r7, #24]
 281:/opt/XMClib/XMC_Peripheral_Library_v2.1.16/XMCLib/src/xmc_usbd.c ****       byte_count = (uint32_t)word_count << (uint32_t)2U;
 405              		.loc 1 281 0
 406 0060 BB69     		ldr	r3, [r7, #24]
 407 0062 9B00     		lsls	r3, r3, #2
 408 0064 FB61     		str	r3, [r7, #28]
 409              	.L22:
 282:/opt/XMClib/XMC_Peripheral_Library_v2.1.16/XMCLib/src/xmc_usbd.c ****     }
 283:/opt/XMClib/XMC_Peripheral_Library_v2.1.16/XMCLib/src/xmc_usbd.c **** 
 284:/opt/XMClib/XMC_Peripheral_Library_v2.1.16/XMCLib/src/xmc_usbd.c ****     /* copy data dword wise */
 285:/opt/XMClib/XMC_Peripheral_Library_v2.1.16/XMCLib/src/xmc_usbd.c ****     for (i = 0U; i < word_count;ep->xferBuffer+= 4U)
 410              		.loc 1 285 0
 411 0066 0023     		movs	r3, #0
 412 0068 3B61     		str	r3, [r7, #16]
 413 006a 0CE0     		b	.L23
 414              	.L24:
 286:/opt/XMClib/XMC_Peripheral_Library_v2.1.16/XMCLib/src/xmc_usbd.c ****     {
 287:/opt/XMClib/XMC_Peripheral_Library_v2.1.16/XMCLib/src/xmc_usbd.c ****       *fifo = *(uint32_t*)ep->xferBuffer;
 415              		.loc 1 287 0 discriminator 3
 416 006c 7B68     		ldr	r3, [r7, #4]
 417 006e 5B6A     		ldr	r3, [r3, #36]
 418 0070 1A68     		ldr	r2, [r3]
 419 0072 FB68     		ldr	r3, [r7, #12]
 420 0074 1A60     		str	r2, [r3]
 288:/opt/XMClib/XMC_Peripheral_Library_v2.1.16/XMCLib/src/xmc_usbd.c ****       i++;
 421              		.loc 1 288 0 discriminator 3
 422 0076 3B69     		ldr	r3, [r7, #16]
 423 0078 0133     		adds	r3, r3, #1
 424 007a 3B61     		str	r3, [r7, #16]
 285:/opt/XMClib/XMC_Peripheral_Library_v2.1.16/XMCLib/src/xmc_usbd.c ****     {
 425              		.loc 1 285 0 discriminator 3
 426 007c 7B68     		ldr	r3, [r7, #4]
 427 007e 5B6A     		ldr	r3, [r3, #36]
 428 0080 1A1D     		adds	r2, r3, #4
 429 0082 7B68     		ldr	r3, [r7, #4]
 430 0084 5A62     		str	r2, [r3, #36]
 431              	.L23:
 285:/opt/XMClib/XMC_Peripheral_Library_v2.1.16/XMCLib/src/xmc_usbd.c ****     {
 432              		.loc 1 285 0 is_stmt 0 discriminator 1
 433 0086 3A69     		ldr	r2, [r7, #16]
 434 0088 BB69     		ldr	r3, [r7, #24]
 435 008a 9A42     		cmp	r2, r3
 436 008c EED3     		bcc	.L24
 289:/opt/XMClib/XMC_Peripheral_Library_v2.1.16/XMCLib/src/xmc_usbd.c ****     }
 290:/opt/XMClib/XMC_Peripheral_Library_v2.1.16/XMCLib/src/xmc_usbd.c ****     result=byte_count;
 437              		.loc 1 290 0 is_stmt 1
 438 008e FB69     		ldr	r3, [r7, #28]
 439 0090 7B61     		str	r3, [r7, #20]
 440              	.L21:
 291:/opt/XMClib/XMC_Peripheral_Library_v2.1.16/XMCLib/src/xmc_usbd.c ****   }
 292:/opt/XMClib/XMC_Peripheral_Library_v2.1.16/XMCLib/src/xmc_usbd.c ****   return result;
 441              		.loc 1 292 0
 442 0092 7B69     		ldr	r3, [r7, #20]
 293:/opt/XMClib/XMC_Peripheral_Library_v2.1.16/XMCLib/src/xmc_usbd.c **** }
 443              		.loc 1 293 0
 444 0094 1846     		mov	r0, r3
 445 0096 2437     		adds	r7, r7, #36
 446              	.LCFI15:
 447              		.cfi_def_cfa_offset 4
 448 0098 BD46     		mov	sp, r7
 449              	.LCFI16:
 450              		.cfi_def_cfa_register 13
 451              		@ sp needed
 452 009a 5DF8047B 		ldr	r7, [sp], #4
 453              	.LCFI17:
 454              		.cfi_restore 7
 455              		.cfi_def_cfa_offset 0
 456 009e 7047     		bx	lr
 457              	.L27:
 458              		.align	2
 459              	.L26:
 460 00a0 00000000 		.word	xmc_device
 461              		.cfi_endproc
 462              	.LFE164:
 464              		.section	.text.XMC_USBD_lFlushTXFifo,"ax",%progbits
 465              		.align	1
 466              		.syntax unified
 467              		.thumb
 468              		.thumb_func
 469              		.fpu fpv4-sp-d16
 471              	XMC_USBD_lFlushTXFifo:
 472              	.LFB165:
 294:/opt/XMClib/XMC_Peripheral_Library_v2.1.16/XMCLib/src/xmc_usbd.c **** 
 295:/opt/XMClib/XMC_Peripheral_Library_v2.1.16/XMCLib/src/xmc_usbd.c **** /**
 296:/opt/XMClib/XMC_Peripheral_Library_v2.1.16/XMCLib/src/xmc_usbd.c ****  * @brief Flush a tx fifo
 297:/opt/XMClib/XMC_Peripheral_Library_v2.1.16/XMCLib/src/xmc_usbd.c ****  *
 298:/opt/XMClib/XMC_Peripheral_Library_v2.1.16/XMCLib/src/xmc_usbd.c ****  * @param[in] fifo_num Fifo number to flush
 299:/opt/XMClib/XMC_Peripheral_Library_v2.1.16/XMCLib/src/xmc_usbd.c ****  *
 300:/opt/XMClib/XMC_Peripheral_Library_v2.1.16/XMCLib/src/xmc_usbd.c ****  * @note Use 0x10 as parameter to flush all tx fifos.
 301:/opt/XMClib/XMC_Peripheral_Library_v2.1.16/XMCLib/src/xmc_usbd.c ****  */
 302:/opt/XMClib/XMC_Peripheral_Library_v2.1.16/XMCLib/src/xmc_usbd.c **** static void XMC_USBD_lFlushTXFifo(const uint8_t fifo_num) 
 303:/opt/XMClib/XMC_Peripheral_Library_v2.1.16/XMCLib/src/xmc_usbd.c **** {
 473              		.loc 1 303 0
 474              		.cfi_startproc
 475              		@ args = 0, pretend = 0, frame = 16
 476              		@ frame_needed = 1, uses_anonymous_args = 0
 477              		@ link register save eliminated.
 478 0000 80B4     		push	{r7}
 479              	.LCFI18:
 480              		.cfi_def_cfa_offset 4
 481              		.cfi_offset 7, -4
 482 0002 85B0     		sub	sp, sp, #20
 483              	.LCFI19:
 484              		.cfi_def_cfa_offset 24
 485 0004 00AF     		add	r7, sp, #0
 486              	.LCFI20:
 487              		.cfi_def_cfa_register 7
 488 0006 0346     		mov	r3, r0
 489 0008 FB71     		strb	r3, [r7, #7]
 304:/opt/XMClib/XMC_Peripheral_Library_v2.1.16/XMCLib/src/xmc_usbd.c ****   volatile grstctl_t data;  
 305:/opt/XMClib/XMC_Peripheral_Library_v2.1.16/XMCLib/src/xmc_usbd.c ****   uint32_t count;
 306:/opt/XMClib/XMC_Peripheral_Library_v2.1.16/XMCLib/src/xmc_usbd.c ****   data.d32 = 0U;
 490              		.loc 1 306 0
 491 000a 0023     		movs	r3, #0
 492 000c BB60     		str	r3, [r7, #8]
 307:/opt/XMClib/XMC_Peripheral_Library_v2.1.16/XMCLib/src/xmc_usbd.c ****   /*flush fifo */
 308:/opt/XMClib/XMC_Peripheral_Library_v2.1.16/XMCLib/src/xmc_usbd.c ****   data.b.txfflsh = 1U;
 493              		.loc 1 308 0
 494 000e BB68     		ldr	r3, [r7, #8]
 495 0010 43F02003 		orr	r3, r3, #32
 496 0014 BB60     		str	r3, [r7, #8]
 309:/opt/XMClib/XMC_Peripheral_Library_v2.1.16/XMCLib/src/xmc_usbd.c ****   data.b.txfnum = fifo_num;
 497              		.loc 1 309 0
 498 0016 FB79     		ldrb	r3, [r7, #7]
 499 0018 03F01F03 		and	r3, r3, #31
 500 001c DAB2     		uxtb	r2, r3
 501 001e BB68     		ldr	r3, [r7, #8]
 502 0020 62F38A13 		bfi	r3, r2, #6, #5
 503 0024 BB60     		str	r3, [r7, #8]
 310:/opt/XMClib/XMC_Peripheral_Library_v2.1.16/XMCLib/src/xmc_usbd.c ****   xmc_device.global_register->grstctl = data.d32;
 504              		.loc 1 310 0
 505 0026 144B     		ldr	r3, .L33
 506 0028 D3F8A031 		ldr	r3, [r3, #416]
 507 002c BA68     		ldr	r2, [r7, #8]
 508 002e 1A61     		str	r2, [r3, #16]
 311:/opt/XMClib/XMC_Peripheral_Library_v2.1.16/XMCLib/src/xmc_usbd.c ****   for (count = 0U;count < 1000U; count++){}
 509              		.loc 1 311 0
 510 0030 0023     		movs	r3, #0
 511 0032 FB60     		str	r3, [r7, #12]
 512 0034 02E0     		b	.L29
 513              	.L30:
 514              		.loc 1 311 0 is_stmt 0 discriminator 3
 515 0036 FB68     		ldr	r3, [r7, #12]
 516 0038 0133     		adds	r3, r3, #1
 517 003a FB60     		str	r3, [r7, #12]
 518              	.L29:
 519              		.loc 1 311 0 discriminator 1
 520 003c FB68     		ldr	r3, [r7, #12]
 521 003e B3F57A7F 		cmp	r3, #1000
 522 0042 F8D3     		bcc	.L30
 523              	.L31:
 312:/opt/XMClib/XMC_Peripheral_Library_v2.1.16/XMCLib/src/xmc_usbd.c ****   do
 313:/opt/XMClib/XMC_Peripheral_Library_v2.1.16/XMCLib/src/xmc_usbd.c ****   {
 314:/opt/XMClib/XMC_Peripheral_Library_v2.1.16/XMCLib/src/xmc_usbd.c ****    data.d32 = xmc_device.global_register->grstctl;
 524              		.loc 1 314 0 is_stmt 1 discriminator 1
 525 0044 0C4B     		ldr	r3, .L33
 526 0046 D3F8A031 		ldr	r3, [r3, #416]
 527 004a 1B69     		ldr	r3, [r3, #16]
 528 004c BB60     		str	r3, [r7, #8]
 315:/opt/XMClib/XMC_Peripheral_Library_v2.1.16/XMCLib/src/xmc_usbd.c ****   } while (data.b.txfflsh);
 529              		.loc 1 315 0 discriminator 1
 530 004e BB68     		ldr	r3, [r7, #8]
 531 0050 C3F34013 		ubfx	r3, r3, #5, #1
 532 0054 DBB2     		uxtb	r3, r3
 533 0056 002B     		cmp	r3, #0
 534 0058 F4D1     		bne	.L31
 316:/opt/XMClib/XMC_Peripheral_Library_v2.1.16/XMCLib/src/xmc_usbd.c ****     count = 0U;
 535              		.loc 1 316 0
 536 005a 0023     		movs	r3, #0
 537 005c FB60     		str	r3, [r7, #12]
 317:/opt/XMClib/XMC_Peripheral_Library_v2.1.16/XMCLib/src/xmc_usbd.c ****   while (count++ < 1000U)
 538              		.loc 1 317 0
 539 005e 00BF     		nop
 540              	.L32:
 541              		.loc 1 317 0 is_stmt 0 discriminator 1
 542 0060 FB68     		ldr	r3, [r7, #12]
 543 0062 5A1C     		adds	r2, r3, #1
 544 0064 FA60     		str	r2, [r7, #12]
 545 0066 B3F57A7F 		cmp	r3, #1000
 546 006a F9D3     		bcc	.L32
 318:/opt/XMClib/XMC_Peripheral_Library_v2.1.16/XMCLib/src/xmc_usbd.c ****   {
 319:/opt/XMClib/XMC_Peripheral_Library_v2.1.16/XMCLib/src/xmc_usbd.c ****     /* wait 3 phy clocks */
 320:/opt/XMClib/XMC_Peripheral_Library_v2.1.16/XMCLib/src/xmc_usbd.c ****   }
 321:/opt/XMClib/XMC_Peripheral_Library_v2.1.16/XMCLib/src/xmc_usbd.c **** }
 547              		.loc 1 321 0 is_stmt 1
 548 006c 00BF     		nop
 549 006e 1437     		adds	r7, r7, #20
 550              	.LCFI21:
 551              		.cfi_def_cfa_offset 4
 552 0070 BD46     		mov	sp, r7
 553              	.LCFI22:
 554              		.cfi_def_cfa_register 13
 555              		@ sp needed
 556 0072 5DF8047B 		ldr	r7, [sp], #4
 557              	.LCFI23:
 558              		.cfi_restore 7
 559              		.cfi_def_cfa_offset 0
 560 0076 7047     		bx	lr
 561              	.L34:
 562              		.align	2
 563              	.L33:
 564 0078 00000000 		.word	xmc_device
 565              		.cfi_endproc
 566              	.LFE165:
 568              		.section	.text.XMC_USBD_lFlushRXFifo,"ax",%progbits
 569              		.align	1
 570              		.syntax unified
 571              		.thumb
 572              		.thumb_func
 573              		.fpu fpv4-sp-d16
 575              	XMC_USBD_lFlushRXFifo:
 576              	.LFB166:
 322:/opt/XMClib/XMC_Peripheral_Library_v2.1.16/XMCLib/src/xmc_usbd.c **** 
 323:/opt/XMClib/XMC_Peripheral_Library_v2.1.16/XMCLib/src/xmc_usbd.c **** /**
 324:/opt/XMClib/XMC_Peripheral_Library_v2.1.16/XMCLib/src/xmc_usbd.c ****  * @brief Flush the rx fifo
 325:/opt/XMClib/XMC_Peripheral_Library_v2.1.16/XMCLib/src/xmc_usbd.c ****  */
 326:/opt/XMClib/XMC_Peripheral_Library_v2.1.16/XMCLib/src/xmc_usbd.c **** static void XMC_USBD_lFlushRXFifo(void) 
 327:/opt/XMClib/XMC_Peripheral_Library_v2.1.16/XMCLib/src/xmc_usbd.c **** {
 577              		.loc 1 327 0
 578              		.cfi_startproc
 579              		@ args = 0, pretend = 0, frame = 8
 580              		@ frame_needed = 1, uses_anonymous_args = 0
 581              		@ link register save eliminated.
 582 0000 80B4     		push	{r7}
 583              	.LCFI24:
 584              		.cfi_def_cfa_offset 4
 585              		.cfi_offset 7, -4
 586 0002 83B0     		sub	sp, sp, #12
 587              	.LCFI25:
 588              		.cfi_def_cfa_offset 16
 589 0004 00AF     		add	r7, sp, #0
 590              	.LCFI26:
 591              		.cfi_def_cfa_register 7
 328:/opt/XMClib/XMC_Peripheral_Library_v2.1.16/XMCLib/src/xmc_usbd.c ****   volatile grstctl_t data;  
 329:/opt/XMClib/XMC_Peripheral_Library_v2.1.16/XMCLib/src/xmc_usbd.c ****   uint32_t count;
 330:/opt/XMClib/XMC_Peripheral_Library_v2.1.16/XMCLib/src/xmc_usbd.c **** 	
 331:/opt/XMClib/XMC_Peripheral_Library_v2.1.16/XMCLib/src/xmc_usbd.c **** 	data.d32 = 0U;
 592              		.loc 1 331 0
 593 0006 0023     		movs	r3, #0
 594 0008 3B60     		str	r3, [r7]
 332:/opt/XMClib/XMC_Peripheral_Library_v2.1.16/XMCLib/src/xmc_usbd.c ****   data.b.rxfflsh = 1U;
 595              		.loc 1 332 0
 596 000a 3B68     		ldr	r3, [r7]
 597 000c 43F01003 		orr	r3, r3, #16
 598 0010 3B60     		str	r3, [r7]
 333:/opt/XMClib/XMC_Peripheral_Library_v2.1.16/XMCLib/src/xmc_usbd.c ****   /* flush FIFO */
 334:/opt/XMClib/XMC_Peripheral_Library_v2.1.16/XMCLib/src/xmc_usbd.c ****   xmc_device.global_register->grstctl = data.d32;
 599              		.loc 1 334 0
 600 0012 144B     		ldr	r3, .L40
 601 0014 D3F8A031 		ldr	r3, [r3, #416]
 602 0018 3A68     		ldr	r2, [r7]
 603 001a 1A61     		str	r2, [r3, #16]
 604              	.L38:
 335:/opt/XMClib/XMC_Peripheral_Library_v2.1.16/XMCLib/src/xmc_usbd.c ****   do
 336:/opt/XMClib/XMC_Peripheral_Library_v2.1.16/XMCLib/src/xmc_usbd.c ****   {
 337:/opt/XMClib/XMC_Peripheral_Library_v2.1.16/XMCLib/src/xmc_usbd.c ****     for (count = 0U; count < 1000U; count++){}
 605              		.loc 1 337 0
 606 001c 0023     		movs	r3, #0
 607 001e 7B60     		str	r3, [r7, #4]
 608 0020 02E0     		b	.L36
 609              	.L37:
 610              		.loc 1 337 0 is_stmt 0 discriminator 3
 611 0022 7B68     		ldr	r3, [r7, #4]
 612 0024 0133     		adds	r3, r3, #1
 613 0026 7B60     		str	r3, [r7, #4]
 614              	.L36:
 615              		.loc 1 337 0 discriminator 1
 616 0028 7B68     		ldr	r3, [r7, #4]
 617 002a B3F57A7F 		cmp	r3, #1000
 618 002e F8D3     		bcc	.L37
 338:/opt/XMClib/XMC_Peripheral_Library_v2.1.16/XMCLib/src/xmc_usbd.c ****     data.d32 = xmc_device.global_register->grstctl;
 619              		.loc 1 338 0 is_stmt 1
 620 0030 0C4B     		ldr	r3, .L40
 621 0032 D3F8A031 		ldr	r3, [r3, #416]
 622 0036 1B69     		ldr	r3, [r3, #16]
 623 0038 3B60     		str	r3, [r7]
 339:/opt/XMClib/XMC_Peripheral_Library_v2.1.16/XMCLib/src/xmc_usbd.c ****   } while (data.b.rxfflsh);
 624              		.loc 1 339 0
 625 003a 3B68     		ldr	r3, [r7]
 626 003c C3F30013 		ubfx	r3, r3, #4, #1
 627 0040 DBB2     		uxtb	r3, r3
 628 0042 002B     		cmp	r3, #0
 629 0044 EAD1     		bne	.L38
 340:/opt/XMClib/XMC_Peripheral_Library_v2.1.16/XMCLib/src/xmc_usbd.c ****   count = 0U;
 630              		.loc 1 340 0
 631 0046 0023     		movs	r3, #0
 632 0048 7B60     		str	r3, [r7, #4]
 341:/opt/XMClib/XMC_Peripheral_Library_v2.1.16/XMCLib/src/xmc_usbd.c ****   while (count++ < 1000U)
 633              		.loc 1 341 0
 634 004a 00BF     		nop
 635              	.L39:
 636              		.loc 1 341 0 is_stmt 0 discriminator 1
 637 004c 7B68     		ldr	r3, [r7, #4]
 638 004e 5A1C     		adds	r2, r3, #1
 639 0050 7A60     		str	r2, [r7, #4]
 640 0052 B3F57A7F 		cmp	r3, #1000
 641 0056 F9D3     		bcc	.L39
 342:/opt/XMClib/XMC_Peripheral_Library_v2.1.16/XMCLib/src/xmc_usbd.c ****   {
 343:/opt/XMClib/XMC_Peripheral_Library_v2.1.16/XMCLib/src/xmc_usbd.c ****     /* wait 3 phy clocks */
 344:/opt/XMClib/XMC_Peripheral_Library_v2.1.16/XMCLib/src/xmc_usbd.c ****   }
 345:/opt/XMClib/XMC_Peripheral_Library_v2.1.16/XMCLib/src/xmc_usbd.c **** }
 642              		.loc 1 345 0 is_stmt 1
 643 0058 00BF     		nop
 644 005a 0C37     		adds	r7, r7, #12
 645              	.LCFI27:
 646              		.cfi_def_cfa_offset 4
 647 005c BD46     		mov	sp, r7
 648              	.LCFI28:
 649              		.cfi_def_cfa_register 13
 650              		@ sp needed
 651 005e 5DF8047B 		ldr	r7, [sp], #4
 652              	.LCFI29:
 653              		.cfi_restore 7
 654              		.cfi_def_cfa_offset 0
 655 0062 7047     		bx	lr
 656              	.L41:
 657              		.align	2
 658              	.L40:
 659 0064 00000000 		.word	xmc_device
 660              		.cfi_endproc
 661              	.LFE166:
 663              		.section	.text.XMC_USBD_lAssignTXFifo,"ax",%progbits
 664              		.align	1
 665              		.syntax unified
 666              		.thumb
 667              		.thumb_func
 668              		.fpu fpv4-sp-d16
 670              	XMC_USBD_lAssignTXFifo:
 671              	.LFB167:
 346:/opt/XMClib/XMC_Peripheral_Library_v2.1.16/XMCLib/src/xmc_usbd.c **** 
 347:/opt/XMClib/XMC_Peripheral_Library_v2.1.16/XMCLib/src/xmc_usbd.c **** /*
 348:/opt/XMClib/XMC_Peripheral_Library_v2.1.16/XMCLib/src/xmc_usbd.c ****  * Support Functions
 349:/opt/XMClib/XMC_Peripheral_Library_v2.1.16/XMCLib/src/xmc_usbd.c ****  */
 350:/opt/XMClib/XMC_Peripheral_Library_v2.1.16/XMCLib/src/xmc_usbd.c **** 
 351:/opt/XMClib/XMC_Peripheral_Library_v2.1.16/XMCLib/src/xmc_usbd.c **** /**
 352:/opt/XMClib/XMC_Peripheral_Library_v2.1.16/XMCLib/src/xmc_usbd.c ****  * @brief Assign a free tx fifo
 353:/opt/XMClib/XMC_Peripheral_Library_v2.1.16/XMCLib/src/xmc_usbd.c ****  *
 354:/opt/XMClib/XMC_Peripheral_Library_v2.1.16/XMCLib/src/xmc_usbd.c ****  * A free tx fifo will be searched and the number will be returned.
 355:/opt/XMClib/XMC_Peripheral_Library_v2.1.16/XMCLib/src/xmc_usbd.c ****  *
 356:/opt/XMClib/XMC_Peripheral_Library_v2.1.16/XMCLib/src/xmc_usbd.c ****  * @return Fifo number for a free fifo
 357:/opt/XMClib/XMC_Peripheral_Library_v2.1.16/XMCLib/src/xmc_usbd.c ****  */
 358:/opt/XMClib/XMC_Peripheral_Library_v2.1.16/XMCLib/src/xmc_usbd.c **** static uint8_t XMC_USBD_lAssignTXFifo(void) 
 359:/opt/XMClib/XMC_Peripheral_Library_v2.1.16/XMCLib/src/xmc_usbd.c **** {
 672              		.loc 1 359 0
 673              		.cfi_startproc
 674              		@ args = 0, pretend = 0, frame = 8
 675              		@ frame_needed = 1, uses_anonymous_args = 0
 676              		@ link register save eliminated.
 677 0000 80B4     		push	{r7}
 678              	.LCFI30:
 679              		.cfi_def_cfa_offset 4
 680              		.cfi_offset 7, -4
 681 0002 83B0     		sub	sp, sp, #12
 682              	.LCFI31:
 683              		.cfi_def_cfa_offset 16
 684 0004 00AF     		add	r7, sp, #0
 685              	.LCFI32:
 686              		.cfi_def_cfa_register 7
 360:/opt/XMClib/XMC_Peripheral_Library_v2.1.16/XMCLib/src/xmc_usbd.c ****   uint16_t mask = 1U;
 687              		.loc 1 360 0
 688 0006 0123     		movs	r3, #1
 689 0008 FB80     		strh	r3, [r7, #6]	@ movhi
 361:/opt/XMClib/XMC_Peripheral_Library_v2.1.16/XMCLib/src/xmc_usbd.c ****   uint8_t i = 0U;
 690              		.loc 1 361 0
 691 000a 0023     		movs	r3, #0
 692 000c 7B71     		strb	r3, [r7, #5]
 362:/opt/XMClib/XMC_Peripheral_Library_v2.1.16/XMCLib/src/xmc_usbd.c ****   uint8_t result = 0U;
 693              		.loc 1 362 0
 694 000e 0023     		movs	r3, #0
 695 0010 3B71     		strb	r3, [r7, #4]
 363:/opt/XMClib/XMC_Peripheral_Library_v2.1.16/XMCLib/src/xmc_usbd.c ****   while( (i < (uint8_t)XMC_USBD_NUM_TX_FIFOS)&&((xmc_device.txfifomsk & mask) != 0U))
 696              		.loc 1 363 0
 697 0012 05E0     		b	.L43
 698              	.L45:
 364:/opt/XMClib/XMC_Peripheral_Library_v2.1.16/XMCLib/src/xmc_usbd.c ****   {
 365:/opt/XMClib/XMC_Peripheral_Library_v2.1.16/XMCLib/src/xmc_usbd.c ****     mask = (uint16_t)(mask << 1U);
 699              		.loc 1 365 0
 700 0014 FB88     		ldrh	r3, [r7, #6]	@ movhi
 701 0016 5B00     		lsls	r3, r3, #1
 702 0018 FB80     		strh	r3, [r7, #6]	@ movhi
 366:/opt/XMClib/XMC_Peripheral_Library_v2.1.16/XMCLib/src/xmc_usbd.c ****     i++;
 703              		.loc 1 366 0
 704 001a 7B79     		ldrb	r3, [r7, #5]	@ zero_extendqisi2
 705 001c 0133     		adds	r3, r3, #1
 706 001e 7B71     		strb	r3, [r7, #5]
 707              	.L43:
 363:/opt/XMClib/XMC_Peripheral_Library_v2.1.16/XMCLib/src/xmc_usbd.c ****   while( (i < (uint8_t)XMC_USBD_NUM_TX_FIFOS)&&((xmc_device.txfifomsk & mask) != 0U))
 708              		.loc 1 363 0
 709 0020 7B79     		ldrb	r3, [r7, #5]	@ zero_extendqisi2
 710 0022 062B     		cmp	r3, #6
 711 0024 07D8     		bhi	.L44
 363:/opt/XMClib/XMC_Peripheral_Library_v2.1.16/XMCLib/src/xmc_usbd.c ****   while( (i < (uint8_t)XMC_USBD_NUM_TX_FIFOS)&&((xmc_device.txfifomsk & mask) != 0U))
 712              		.loc 1 363 0 is_stmt 0 discriminator 1
 713 0026 114B     		ldr	r3, .L48
 714 0028 B3F8FC21 		ldrh	r2, [r3, #508]
 715 002c FB88     		ldrh	r3, [r7, #6]	@ movhi
 716 002e 1340     		ands	r3, r3, r2
 717 0030 9BB2     		uxth	r3, r3
 718 0032 002B     		cmp	r3, #0
 719 0034 EED1     		bne	.L45
 720              	.L44:
 367:/opt/XMClib/XMC_Peripheral_Library_v2.1.16/XMCLib/src/xmc_usbd.c ****   }
 368:/opt/XMClib/XMC_Peripheral_Library_v2.1.16/XMCLib/src/xmc_usbd.c ****   if ((xmc_device.txfifomsk & mask) == 0U)
 721              		.loc 1 368 0 is_stmt 1
 722 0036 0D4B     		ldr	r3, .L48
 723 0038 B3F8FC21 		ldrh	r2, [r3, #508]
 724 003c FB88     		ldrh	r3, [r7, #6]	@ movhi
 725 003e 1340     		ands	r3, r3, r2
 726 0040 9BB2     		uxth	r3, r3
 727 0042 002B     		cmp	r3, #0
 728 0044 0AD1     		bne	.L46
 369:/opt/XMClib/XMC_Peripheral_Library_v2.1.16/XMCLib/src/xmc_usbd.c ****   {
 370:/opt/XMClib/XMC_Peripheral_Library_v2.1.16/XMCLib/src/xmc_usbd.c ****     xmc_device.txfifomsk |= mask;
 729              		.loc 1 370 0
 730 0046 094B     		ldr	r3, .L48
 731 0048 B3F8FC21 		ldrh	r2, [r3, #508]
 732 004c FB88     		ldrh	r3, [r7, #6]	@ movhi
 733 004e 1343     		orrs	r3, r3, r2
 734 0050 9AB2     		uxth	r2, r3
 735 0052 064B     		ldr	r3, .L48
 736 0054 A3F8FC21 		strh	r2, [r3, #508]	@ movhi
 371:/opt/XMClib/XMC_Peripheral_Library_v2.1.16/XMCLib/src/xmc_usbd.c ****     result=i;
 737              		.loc 1 371 0
 738 0058 7B79     		ldrb	r3, [r7, #5]
 739 005a 3B71     		strb	r3, [r7, #4]
 740              	.L46:
 372:/opt/XMClib/XMC_Peripheral_Library_v2.1.16/XMCLib/src/xmc_usbd.c ****   }
 373:/opt/XMClib/XMC_Peripheral_Library_v2.1.16/XMCLib/src/xmc_usbd.c ****   return result;
 741              		.loc 1 373 0
 742 005c 3B79     		ldrb	r3, [r7, #4]	@ zero_extendqisi2
 374:/opt/XMClib/XMC_Peripheral_Library_v2.1.16/XMCLib/src/xmc_usbd.c **** }
 743              		.loc 1 374 0
 744 005e 1846     		mov	r0, r3
 745 0060 0C37     		adds	r7, r7, #12
 746              	.LCFI33:
 747              		.cfi_def_cfa_offset 4
 748 0062 BD46     		mov	sp, r7
 749              	.LCFI34:
 750              		.cfi_def_cfa_register 13
 751              		@ sp needed
 752 0064 5DF8047B 		ldr	r7, [sp], #4
 753              	.LCFI35:
 754              		.cfi_restore 7
 755              		.cfi_def_cfa_offset 0
 756 0068 7047     		bx	lr
 757              	.L49:
 758 006a 00BF     		.align	2
 759              	.L48:
 760 006c 00000000 		.word	xmc_device
 761              		.cfi_endproc
 762              	.LFE167:
 764              		.section	.text.XMC_USBD_lUnassignFifo,"ax",%progbits
 765              		.align	1
 766              		.syntax unified
 767              		.thumb
 768              		.thumb_func
 769              		.fpu fpv4-sp-d16
 771              	XMC_USBD_lUnassignFifo:
 772              	.LFB168:
 375:/opt/XMClib/XMC_Peripheral_Library_v2.1.16/XMCLib/src/xmc_usbd.c **** 
 376:/opt/XMClib/XMC_Peripheral_Library_v2.1.16/XMCLib/src/xmc_usbd.c **** /**
 377:/opt/XMClib/XMC_Peripheral_Library_v2.1.16/XMCLib/src/xmc_usbd.c ****  * @brief Free a tx fifo
 378:/opt/XMClib/XMC_Peripheral_Library_v2.1.16/XMCLib/src/xmc_usbd.c ****  *
 379:/opt/XMClib/XMC_Peripheral_Library_v2.1.16/XMCLib/src/xmc_usbd.c ****  * Mark an used tx fifo as free.
 380:/opt/XMClib/XMC_Peripheral_Library_v2.1.16/XMCLib/src/xmc_usbd.c ****  * @param[in] fifo_nr Fifo number to free
 381:/opt/XMClib/XMC_Peripheral_Library_v2.1.16/XMCLib/src/xmc_usbd.c ****  */
 382:/opt/XMClib/XMC_Peripheral_Library_v2.1.16/XMCLib/src/xmc_usbd.c **** static void XMC_USBD_lUnassignFifo(const uint8_t fifo_nr) 
 383:/opt/XMClib/XMC_Peripheral_Library_v2.1.16/XMCLib/src/xmc_usbd.c **** {
 773              		.loc 1 383 0
 774              		.cfi_startproc
 775              		@ args = 0, pretend = 0, frame = 8
 776              		@ frame_needed = 1, uses_anonymous_args = 0
 777              		@ link register save eliminated.
 778 0000 80B4     		push	{r7}
 779              	.LCFI36:
 780              		.cfi_def_cfa_offset 4
 781              		.cfi_offset 7, -4
 782 0002 83B0     		sub	sp, sp, #12
 783              	.LCFI37:
 784              		.cfi_def_cfa_offset 16
 785 0004 00AF     		add	r7, sp, #0
 786              	.LCFI38:
 787              		.cfi_def_cfa_register 7
 788 0006 0346     		mov	r3, r0
 789 0008 FB71     		strb	r3, [r7, #7]
 384:/opt/XMClib/XMC_Peripheral_Library_v2.1.16/XMCLib/src/xmc_usbd.c ****   xmc_device.txfifomsk = (uint16_t)((uint32_t)xmc_device.txfifomsk & (uint32_t)(~((uint32_t)((uint3
 790              		.loc 1 384 0
 791 000a 0A4B     		ldr	r3, .L51
 792 000c B3F8FC21 		ldrh	r2, [r3, #508]
 793 0010 FB79     		ldrb	r3, [r7, #7]	@ zero_extendqisi2
 794 0012 0121     		movs	r1, #1
 795 0014 01FA03F3 		lsl	r3, r1, r3
 796 0018 9BB2     		uxth	r3, r3
 797 001a DB43     		mvns	r3, r3
 798 001c 9BB2     		uxth	r3, r3
 799 001e 1340     		ands	r3, r3, r2
 800 0020 9AB2     		uxth	r2, r3
 801 0022 044B     		ldr	r3, .L51
 802 0024 A3F8FC21 		strh	r2, [r3, #508]	@ movhi
 385:/opt/XMClib/XMC_Peripheral_Library_v2.1.16/XMCLib/src/xmc_usbd.c **** }
 803              		.loc 1 385 0
 804 0028 00BF     		nop
 805 002a 0C37     		adds	r7, r7, #12
 806              	.LCFI39:
 807              		.cfi_def_cfa_offset 4
 808 002c BD46     		mov	sp, r7
 809              	.LCFI40:
 810              		.cfi_def_cfa_register 13
 811              		@ sp needed
 812 002e 5DF8047B 		ldr	r7, [sp], #4
 813              	.LCFI41:
 814              		.cfi_restore 7
 815              		.cfi_def_cfa_offset 0
 816 0032 7047     		bx	lr
 817              	.L52:
 818              		.align	2
 819              	.L51:
 820 0034 00000000 		.word	xmc_device
 821              		.cfi_endproc
 822              	.LFE168:
 824              		.section	.text.XMC_USBD_lStartReadXfer,"ax",%progbits
 825              		.align	1
 826              		.syntax unified
 827              		.thumb
 828              		.thumb_func
 829              		.fpu fpv4-sp-d16
 831              	XMC_USBD_lStartReadXfer:
 832              	.LFB169:
 386:/opt/XMClib/XMC_Peripheral_Library_v2.1.16/XMCLib/src/xmc_usbd.c **** 
 387:/opt/XMClib/XMC_Peripheral_Library_v2.1.16/XMCLib/src/xmc_usbd.c **** /**
 388:/opt/XMClib/XMC_Peripheral_Library_v2.1.16/XMCLib/src/xmc_usbd.c ****  * @brief Start a transfer for an out endpoint
 389:/opt/XMClib/XMC_Peripheral_Library_v2.1.16/XMCLib/src/xmc_usbd.c ****  *
 390:/opt/XMClib/XMC_Peripheral_Library_v2.1.16/XMCLib/src/xmc_usbd.c ****  * Based on the transfer values of the endpoint, the out endpoint registers will be programmed
 391:/opt/XMClib/XMC_Peripheral_Library_v2.1.16/XMCLib/src/xmc_usbd.c ****  * to start a new out transfer.
 392:/opt/XMClib/XMC_Peripheral_Library_v2.1.16/XMCLib/src/xmc_usbd.c ****  *
 393:/opt/XMClib/XMC_Peripheral_Library_v2.1.16/XMCLib/src/xmc_usbd.c ****  * @note No checking of the transfer values are done in this function. Be sure,
 394:/opt/XMClib/XMC_Peripheral_Library_v2.1.16/XMCLib/src/xmc_usbd.c ****  * that the transfer values are reasonable (e.g. buffer size is not exceeded).
 395:/opt/XMClib/XMC_Peripheral_Library_v2.1.16/XMCLib/src/xmc_usbd.c ****  *
 396:/opt/XMClib/XMC_Peripheral_Library_v2.1.16/XMCLib/src/xmc_usbd.c ****  * @param[in] ep Endpoint to start the transfer
 397:/opt/XMClib/XMC_Peripheral_Library_v2.1.16/XMCLib/src/xmc_usbd.c ****  */
 398:/opt/XMClib/XMC_Peripheral_Library_v2.1.16/XMCLib/src/xmc_usbd.c **** static void XMC_USBD_lStartReadXfer(XMC_USBD_EP_t *const ep) 
 399:/opt/XMClib/XMC_Peripheral_Library_v2.1.16/XMCLib/src/xmc_usbd.c **** {
 833              		.loc 1 399 0
 834              		.cfi_startproc
 835              		@ args = 0, pretend = 0, frame = 24
 836              		@ frame_needed = 1, uses_anonymous_args = 0
 837              		@ link register save eliminated.
 838 0000 80B4     		push	{r7}
 839              	.LCFI42:
 840              		.cfi_def_cfa_offset 4
 841              		.cfi_offset 7, -4
 842 0002 87B0     		sub	sp, sp, #28
 843              	.LCFI43:
 844              		.cfi_def_cfa_offset 32
 845 0004 00AF     		add	r7, sp, #0
 846              	.LCFI44:
 847              		.cfi_def_cfa_register 7
 848 0006 7860     		str	r0, [r7, #4]
 400:/opt/XMClib/XMC_Peripheral_Library_v2.1.16/XMCLib/src/xmc_usbd.c ****   deptsiz_data_t data;
 401:/opt/XMClib/XMC_Peripheral_Library_v2.1.16/XMCLib/src/xmc_usbd.c ****   depctl_data_t epctl;
 402:/opt/XMClib/XMC_Peripheral_Library_v2.1.16/XMCLib/src/xmc_usbd.c **** 	
 403:/opt/XMClib/XMC_Peripheral_Library_v2.1.16/XMCLib/src/xmc_usbd.c ****   data.d32 =  0U;
 849              		.loc 1 403 0
 850 0008 0023     		movs	r3, #0
 851 000a 3B61     		str	r3, [r7, #16]
 404:/opt/XMClib/XMC_Peripheral_Library_v2.1.16/XMCLib/src/xmc_usbd.c ****   if ((ep->xferTotal - ep->xferLength) > ep->maxTransferSize)
 852              		.loc 1 404 0
 853 000c 7B68     		ldr	r3, [r7, #4]
 854 000e 1A6B     		ldr	r2, [r3, #48]
 855 0010 7B68     		ldr	r3, [r7, #4]
 856 0012 9B6A     		ldr	r3, [r3, #40]
 857 0014 D31A     		subs	r3, r2, r3
 858 0016 7A68     		ldr	r2, [r7, #4]
 859 0018 9268     		ldr	r2, [r2, #8]
 860 001a C2F31202 		ubfx	r2, r2, #0, #19
 861 001e 9342     		cmp	r3, r2
 862 0020 09D9     		bls	.L54
 405:/opt/XMClib/XMC_Peripheral_Library_v2.1.16/XMCLib/src/xmc_usbd.c ****   {
 406:/opt/XMClib/XMC_Peripheral_Library_v2.1.16/XMCLib/src/xmc_usbd.c ****     ep->xferLength += ep->maxTransferSize;
 863              		.loc 1 406 0
 864 0022 7B68     		ldr	r3, [r7, #4]
 865 0024 9B6A     		ldr	r3, [r3, #40]
 866 0026 7A68     		ldr	r2, [r7, #4]
 867 0028 9268     		ldr	r2, [r2, #8]
 868 002a C2F31202 		ubfx	r2, r2, #0, #19
 869 002e 1A44     		add	r2, r2, r3
 870 0030 7B68     		ldr	r3, [r7, #4]
 871 0032 9A62     		str	r2, [r3, #40]
 872 0034 03E0     		b	.L55
 873              	.L54:
 407:/opt/XMClib/XMC_Peripheral_Library_v2.1.16/XMCLib/src/xmc_usbd.c ****   }
 408:/opt/XMClib/XMC_Peripheral_Library_v2.1.16/XMCLib/src/xmc_usbd.c ****   else
 409:/opt/XMClib/XMC_Peripheral_Library_v2.1.16/XMCLib/src/xmc_usbd.c ****   {
 410:/opt/XMClib/XMC_Peripheral_Library_v2.1.16/XMCLib/src/xmc_usbd.c ****     ep->xferLength = ep->xferTotal;
 874              		.loc 1 410 0
 875 0036 7B68     		ldr	r3, [r7, #4]
 876 0038 1A6B     		ldr	r2, [r3, #48]
 877 003a 7B68     		ldr	r3, [r7, #4]
 878 003c 9A62     		str	r2, [r3, #40]
 879              	.L55:
 411:/opt/XMClib/XMC_Peripheral_Library_v2.1.16/XMCLib/src/xmc_usbd.c ****   }
 412:/opt/XMClib/XMC_Peripheral_Library_v2.1.16/XMCLib/src/xmc_usbd.c ****   if (ep->address_u.address_st.number == 0U)
 880              		.loc 1 412 0
 881 003e 7B68     		ldr	r3, [r7, #4]
 882 0040 1B78     		ldrb	r3, [r3]	@ zero_extendqisi2
 883 0042 03F00F03 		and	r3, r3, #15
 884 0046 DBB2     		uxtb	r3, r3
 885 0048 002B     		cmp	r3, #0
 886 004a 18D1     		bne	.L56
 887              	.LBB2:
 413:/opt/XMClib/XMC_Peripheral_Library_v2.1.16/XMCLib/src/xmc_usbd.c ****   {
 414:/opt/XMClib/XMC_Peripheral_Library_v2.1.16/XMCLib/src/xmc_usbd.c **** 	/* Setup the endpoint to receive 3 setup packages and one normal package.*/
 415:/opt/XMClib/XMC_Peripheral_Library_v2.1.16/XMCLib/src/xmc_usbd.c **** 	/* Cast the data pointer to use only one variable */
 416:/opt/XMClib/XMC_Peripheral_Library_v2.1.16/XMCLib/src/xmc_usbd.c ****     deptsiz0_data_t *ep0_data = (deptsiz0_data_t*)&data;
 888              		.loc 1 416 0
 889 004c 07F11003 		add	r3, r7, #16
 890 0050 7B61     		str	r3, [r7, #20]
 417:/opt/XMClib/XMC_Peripheral_Library_v2.1.16/XMCLib/src/xmc_usbd.c ****     ep0_data->b.pktcnt = 0x1U;
 891              		.loc 1 417 0
 892 0052 7A69     		ldr	r2, [r7, #20]
 893 0054 9378     		ldrb	r3, [r2, #2]
 894 0056 0121     		movs	r1, #1
 895 0058 61F3C403 		bfi	r3, r1, #3, #2
 896 005c 9370     		strb	r3, [r2, #2]
 418:/opt/XMClib/XMC_Peripheral_Library_v2.1.16/XMCLib/src/xmc_usbd.c ****     ep0_data->b.supcnt = 0x3U;
 897              		.loc 1 418 0
 898 005e 7A69     		ldr	r2, [r7, #20]
 899 0060 D378     		ldrb	r3, [r2, #3]
 900 0062 43F06003 		orr	r3, r3, #96
 901 0066 D370     		strb	r3, [r2, #3]
 419:/opt/XMClib/XMC_Peripheral_Library_v2.1.16/XMCLib/src/xmc_usbd.c ****     ep0_data->b.xfersize = (uint8_t)ep->xferTotal;
 902              		.loc 1 419 0
 903 0068 7B68     		ldr	r3, [r7, #4]
 904 006a 1B6B     		ldr	r3, [r3, #48]
 905 006c 03F07F03 		and	r3, r3, #127
 906 0070 D9B2     		uxtb	r1, r3
 907 0072 7A69     		ldr	r2, [r7, #20]
 908 0074 1378     		ldrb	r3, [r2]
 909 0076 61F30603 		bfi	r3, r1, #0, #7
 910 007a 1370     		strb	r3, [r2]
 911              	.LBE2:
 912 007c 32E0     		b	.L57
 913              	.L56:
 420:/opt/XMClib/XMC_Peripheral_Library_v2.1.16/XMCLib/src/xmc_usbd.c ****   }
 421:/opt/XMClib/XMC_Peripheral_Library_v2.1.16/XMCLib/src/xmc_usbd.c ****   else
 422:/opt/XMClib/XMC_Peripheral_Library_v2.1.16/XMCLib/src/xmc_usbd.c ****   {
 423:/opt/XMClib/XMC_Peripheral_Library_v2.1.16/XMCLib/src/xmc_usbd.c ****     /* If requested length is zero, just receive one zero length packet */
 424:/opt/XMClib/XMC_Peripheral_Library_v2.1.16/XMCLib/src/xmc_usbd.c ****     if (ep->xferLength == 0U)
 914              		.loc 1 424 0
 915 007e 7B68     		ldr	r3, [r7, #4]
 916 0080 9B6A     		ldr	r3, [r3, #40]
 917 0082 002B     		cmp	r3, #0
 918 0084 09D1     		bne	.L58
 425:/opt/XMClib/XMC_Peripheral_Library_v2.1.16/XMCLib/src/xmc_usbd.c ****     {
 426:/opt/XMClib/XMC_Peripheral_Library_v2.1.16/XMCLib/src/xmc_usbd.c ****       data.b.xfersize = 0U;
 919              		.loc 1 426 0
 920 0086 3B69     		ldr	r3, [r7, #16]
 921 0088 6FF31203 		bfc	r3, #0, #19
 922 008c 3B61     		str	r3, [r7, #16]
 427:/opt/XMClib/XMC_Peripheral_Library_v2.1.16/XMCLib/src/xmc_usbd.c ****       data.b.pktcnt = 1U;
 923              		.loc 1 427 0
 924 008e 7B8A     		ldrh	r3, [r7, #18]	@ movhi
 925 0090 0122     		movs	r2, #1
 926 0092 62F3CC03 		bfi	r3, r2, #3, #10
 927 0096 7B82     		strh	r3, [r7, #18]	@ movhi
 928 0098 24E0     		b	.L57
 929              	.L58:
 428:/opt/XMClib/XMC_Peripheral_Library_v2.1.16/XMCLib/src/xmc_usbd.c ****     }
 429:/opt/XMClib/XMC_Peripheral_Library_v2.1.16/XMCLib/src/xmc_usbd.c ****     else
 430:/opt/XMClib/XMC_Peripheral_Library_v2.1.16/XMCLib/src/xmc_usbd.c ****     {
 431:/opt/XMClib/XMC_Peripheral_Library_v2.1.16/XMCLib/src/xmc_usbd.c ****       /* setup endpoint to recive a amount of packages by given size */
 432:/opt/XMClib/XMC_Peripheral_Library_v2.1.16/XMCLib/src/xmc_usbd.c ****       data.b.pktcnt = (uint16_t)(((ep->xferLength - ep->xferCount) + (ep->maxPacketSize -(uint32_t)
 930              		.loc 1 432 0
 931 009a 7B68     		ldr	r3, [r7, #4]
 932 009c 9A6A     		ldr	r2, [r3, #40]
 933 009e 7B68     		ldr	r3, [r7, #4]
 934 00a0 DB6A     		ldr	r3, [r3, #44]
 935 00a2 D31A     		subs	r3, r2, r3
 936 00a4 7A68     		ldr	r2, [r7, #4]
 937 00a6 5268     		ldr	r2, [r2, #4]
 938 00a8 C2F3C622 		ubfx	r2, r2, #11, #7
 939 00ac D2B2     		uxtb	r2, r2
 940 00ae 1344     		add	r3, r3, r2
 941 00b0 013B     		subs	r3, r3, #1
 942 00b2 7A68     		ldr	r2, [r7, #4]
 943 00b4 5268     		ldr	r2, [r2, #4]
 944 00b6 C2F3C622 		ubfx	r2, r2, #11, #7
 945 00ba D2B2     		uxtb	r2, r2
 946 00bc B3FBF2F3 		udiv	r3, r3, r2
 947 00c0 C3F30903 		ubfx	r3, r3, #0, #10
 948 00c4 9AB2     		uxth	r2, r3
 949 00c6 7B8A     		ldrh	r3, [r7, #18]	@ movhi
 950 00c8 62F3CC03 		bfi	r3, r2, #3, #10
 951 00cc 7B82     		strh	r3, [r7, #18]	@ movhi
 433:/opt/XMClib/XMC_Peripheral_Library_v2.1.16/XMCLib/src/xmc_usbd.c ****       data.b.xfersize =(uint32_t)(ep->xferLength - ep->xferCount);
 952              		.loc 1 433 0
 953 00ce 7B68     		ldr	r3, [r7, #4]
 954 00d0 9A6A     		ldr	r2, [r3, #40]
 955 00d2 7B68     		ldr	r3, [r7, #4]
 956 00d4 DB6A     		ldr	r3, [r3, #44]
 957 00d6 D31A     		subs	r3, r2, r3
 958 00d8 C3F31202 		ubfx	r2, r3, #0, #19
 959 00dc 3B69     		ldr	r3, [r7, #16]
 960 00de 62F31203 		bfi	r3, r2, #0, #19
 961 00e2 3B61     		str	r3, [r7, #16]
 962              	.L57:
 434:/opt/XMClib/XMC_Peripheral_Library_v2.1.16/XMCLib/src/xmc_usbd.c ****     }
 435:/opt/XMClib/XMC_Peripheral_Library_v2.1.16/XMCLib/src/xmc_usbd.c ****   }
 436:/opt/XMClib/XMC_Peripheral_Library_v2.1.16/XMCLib/src/xmc_usbd.c ****   if(usbd_init->usbd_transfer_mode == XMC_USBD_USE_DMA)
 963              		.loc 1 436 0
 964 00e4 224B     		ldr	r3, .L60
 965 00e6 1B68     		ldr	r3, [r3]
 966 00e8 5B7B     		ldrb	r3, [r3, #13]	@ zero_extendqisi2
 967 00ea 002B     		cmp	r3, #0
 968 00ec 0DD1     		bne	.L59
 437:/opt/XMClib/XMC_Peripheral_Library_v2.1.16/XMCLib/src/xmc_usbd.c ****   {
 438:/opt/XMClib/XMC_Peripheral_Library_v2.1.16/XMCLib/src/xmc_usbd.c ****     /* Programm dma address if needed */
 439:/opt/XMClib/XMC_Peripheral_Library_v2.1.16/XMCLib/src/xmc_usbd.c ****     xmc_device.endpoint_out_register[ep->address_u.address_st.number]->doepdma = (uint32_t)(ep->xfe
 969              		.loc 1 439 0
 970 00ee 7B68     		ldr	r3, [r7, #4]
 971 00f0 596A     		ldr	r1, [r3, #36]
 972 00f2 7B68     		ldr	r3, [r7, #4]
 973 00f4 1B78     		ldrb	r3, [r3]
 974 00f6 C3F30303 		ubfx	r3, r3, #0, #4
 975 00fa DBB2     		uxtb	r3, r3
 976 00fc 1D4A     		ldr	r2, .L60+4
 977 00fe 7033     		adds	r3, r3, #112
 978 0100 9B00     		lsls	r3, r3, #2
 979 0102 1344     		add	r3, r3, r2
 980 0104 5B68     		ldr	r3, [r3, #4]
 981 0106 0A46     		mov	r2, r1
 982 0108 5A61     		str	r2, [r3, #20]
 983              	.L59:
 440:/opt/XMClib/XMC_Peripheral_Library_v2.1.16/XMCLib/src/xmc_usbd.c ****   }
 441:/opt/XMClib/XMC_Peripheral_Library_v2.1.16/XMCLib/src/xmc_usbd.c ****   /* setup endpoint size and enable endpoint */
 442:/opt/XMClib/XMC_Peripheral_Library_v2.1.16/XMCLib/src/xmc_usbd.c ****   xmc_device.endpoint_out_register[ep->address_u.address_st.number]->doeptsiz = data.d32;
 984              		.loc 1 442 0
 985 010a 7B68     		ldr	r3, [r7, #4]
 986 010c 1B78     		ldrb	r3, [r3]
 987 010e C3F30303 		ubfx	r3, r3, #0, #4
 988 0112 DBB2     		uxtb	r3, r3
 989 0114 174A     		ldr	r2, .L60+4
 990 0116 7033     		adds	r3, r3, #112
 991 0118 9B00     		lsls	r3, r3, #2
 992 011a 1344     		add	r3, r3, r2
 993 011c 5B68     		ldr	r3, [r3, #4]
 994 011e 3A69     		ldr	r2, [r7, #16]
 995 0120 1A61     		str	r2, [r3, #16]
 443:/opt/XMClib/XMC_Peripheral_Library_v2.1.16/XMCLib/src/xmc_usbd.c ****  
 444:/opt/XMClib/XMC_Peripheral_Library_v2.1.16/XMCLib/src/xmc_usbd.c ****   epctl.d32 = xmc_device.endpoint_out_register[ep->address_u.address_st.number]->doepctl;
 996              		.loc 1 444 0
 997 0122 7B68     		ldr	r3, [r7, #4]
 998 0124 1B78     		ldrb	r3, [r3]
 999 0126 C3F30303 		ubfx	r3, r3, #0, #4
 1000 012a DBB2     		uxtb	r3, r3
 1001 012c 114A     		ldr	r2, .L60+4
 1002 012e 7033     		adds	r3, r3, #112
 1003 0130 9B00     		lsls	r3, r3, #2
 1004 0132 1344     		add	r3, r3, r2
 1005 0134 5B68     		ldr	r3, [r3, #4]
 1006 0136 1B68     		ldr	r3, [r3]
 1007 0138 FB60     		str	r3, [r7, #12]
 445:/opt/XMClib/XMC_Peripheral_Library_v2.1.16/XMCLib/src/xmc_usbd.c ****   epctl.b.cnak = 1U;
 1008              		.loc 1 445 0
 1009 013a FB7B     		ldrb	r3, [r7, #15]
 1010 013c 43F00403 		orr	r3, r3, #4
 1011 0140 FB73     		strb	r3, [r7, #15]
 446:/opt/XMClib/XMC_Peripheral_Library_v2.1.16/XMCLib/src/xmc_usbd.c ****   epctl.b.epena = 1U;
 1012              		.loc 1 446 0
 1013 0142 FB7B     		ldrb	r3, [r7, #15]
 1014 0144 43F08003 		orr	r3, r3, #128
 1015 0148 FB73     		strb	r3, [r7, #15]
 447:/opt/XMClib/XMC_Peripheral_Library_v2.1.16/XMCLib/src/xmc_usbd.c ****   xmc_device.endpoint_out_register[ep->address_u.address_st.number]->doepctl = epctl.d32;
 1016              		.loc 1 447 0
 1017 014a 7B68     		ldr	r3, [r7, #4]
 1018 014c 1B78     		ldrb	r3, [r3]
 1019 014e C3F30303 		ubfx	r3, r3, #0, #4
 1020 0152 DBB2     		uxtb	r3, r3
 1021 0154 074A     		ldr	r2, .L60+4
 1022 0156 7033     		adds	r3, r3, #112
 1023 0158 9B00     		lsls	r3, r3, #2
 1024 015a 1344     		add	r3, r3, r2
 1025 015c 5B68     		ldr	r3, [r3, #4]
 1026 015e FA68     		ldr	r2, [r7, #12]
 1027 0160 1A60     		str	r2, [r3]
 448:/opt/XMClib/XMC_Peripheral_Library_v2.1.16/XMCLib/src/xmc_usbd.c **** }
 1028              		.loc 1 448 0
 1029 0162 00BF     		nop
 1030 0164 1C37     		adds	r7, r7, #28
 1031              	.LCFI45:
 1032              		.cfi_def_cfa_offset 4
 1033 0166 BD46     		mov	sp, r7
 1034              	.LCFI46:
 1035              		.cfi_def_cfa_register 13
 1036              		@ sp needed
 1037 0168 5DF8047B 		ldr	r7, [sp], #4
 1038              	.LCFI47:
 1039              		.cfi_restore 7
 1040              		.cfi_def_cfa_offset 0
 1041 016c 7047     		bx	lr
 1042              	.L61:
 1043 016e 00BF     		.align	2
 1044              	.L60:
 1045 0170 00000000 		.word	usbd_init
 1046 0174 00000000 		.word	xmc_device
 1047              		.cfi_endproc
 1048              	.LFE169:
 1050              		.section	.text.XMC_USBD_lStartWriteXfer,"ax",%progbits
 1051              		.align	1
 1052              		.syntax unified
 1053              		.thumb
 1054              		.thumb_func
 1055              		.fpu fpv4-sp-d16
 1057              	XMC_USBD_lStartWriteXfer:
 1058              	.LFB170:
 449:/opt/XMClib/XMC_Peripheral_Library_v2.1.16/XMCLib/src/xmc_usbd.c **** 
 450:/opt/XMClib/XMC_Peripheral_Library_v2.1.16/XMCLib/src/xmc_usbd.c **** /**
 451:/opt/XMClib/XMC_Peripheral_Library_v2.1.16/XMCLib/src/xmc_usbd.c ****  * @brief Start a new in transfer
 452:/opt/XMClib/XMC_Peripheral_Library_v2.1.16/XMCLib/src/xmc_usbd.c ****  *
 453:/opt/XMClib/XMC_Peripheral_Library_v2.1.16/XMCLib/src/xmc_usbd.c ****  * Based on the transfer values of the endpoint the in endpoint registers will be programmed
 454:/opt/XMClib/XMC_Peripheral_Library_v2.1.16/XMCLib/src/xmc_usbd.c ****  * to start a new in transfer
 455:/opt/XMClib/XMC_Peripheral_Library_v2.1.16/XMCLib/src/xmc_usbd.c ****  *
 456:/opt/XMClib/XMC_Peripheral_Library_v2.1.16/XMCLib/src/xmc_usbd.c ****  * @param[in] ep Endpoint to start the transfer
 457:/opt/XMClib/XMC_Peripheral_Library_v2.1.16/XMCLib/src/xmc_usbd.c ****  */
 458:/opt/XMClib/XMC_Peripheral_Library_v2.1.16/XMCLib/src/xmc_usbd.c **** static void XMC_USBD_lStartWriteXfer(XMC_USBD_EP_t *const ep) 
 459:/opt/XMClib/XMC_Peripheral_Library_v2.1.16/XMCLib/src/xmc_usbd.c **** {
 1059              		.loc 1 459 0
 1060              		.cfi_startproc
 1061              		@ args = 0, pretend = 0, frame = 16
 1062              		@ frame_needed = 1, uses_anonymous_args = 0
 1063              		@ link register save eliminated.
 1064 0000 80B4     		push	{r7}
 1065              	.LCFI48:
 1066              		.cfi_def_cfa_offset 4
 1067              		.cfi_offset 7, -4
 1068 0002 85B0     		sub	sp, sp, #20
 1069              	.LCFI49:
 1070              		.cfi_def_cfa_offset 24
 1071 0004 00AF     		add	r7, sp, #0
 1072              	.LCFI50:
 1073              		.cfi_def_cfa_register 7
 1074 0006 7860     		str	r0, [r7, #4]
 460:/opt/XMClib/XMC_Peripheral_Library_v2.1.16/XMCLib/src/xmc_usbd.c ****   deptsiz_data_t size;
 461:/opt/XMClib/XMC_Peripheral_Library_v2.1.16/XMCLib/src/xmc_usbd.c ****   depctl_data_t ctl;
 462:/opt/XMClib/XMC_Peripheral_Library_v2.1.16/XMCLib/src/xmc_usbd.c **** 	
 463:/opt/XMClib/XMC_Peripheral_Library_v2.1.16/XMCLib/src/xmc_usbd.c ****   size.d32 = 0U;  
 1075              		.loc 1 463 0
 1076 0008 0023     		movs	r3, #0
 1077 000a FB60     		str	r3, [r7, #12]
 464:/opt/XMClib/XMC_Peripheral_Library_v2.1.16/XMCLib/src/xmc_usbd.c ****   ctl.d32 = xmc_device.endpoint_in_register[ep->address_u.address_st.number]->diepctl;
 1078              		.loc 1 464 0
 1079 000c 7B68     		ldr	r3, [r7, #4]
 1080 000e 1B78     		ldrb	r3, [r3]
 1081 0010 C3F30303 		ubfx	r3, r3, #0, #4
 1082 0014 DBB2     		uxtb	r3, r3
 1083 0016 5E4A     		ldr	r2, .L70
 1084 0018 6A33     		adds	r3, r3, #106
 1085 001a 52F82330 		ldr	r3, [r2, r3, lsl #2]
 1086 001e 1B68     		ldr	r3, [r3]
 1087 0020 BB60     		str	r3, [r7, #8]
 465:/opt/XMClib/XMC_Peripheral_Library_v2.1.16/XMCLib/src/xmc_usbd.c **** 
 466:/opt/XMClib/XMC_Peripheral_Library_v2.1.16/XMCLib/src/xmc_usbd.c ****   if ((ep->xferTotal - ep->xferLength)  < ep->maxTransferSize)
 1088              		.loc 1 466 0
 1089 0022 7B68     		ldr	r3, [r7, #4]
 1090 0024 1A6B     		ldr	r2, [r3, #48]
 1091 0026 7B68     		ldr	r3, [r7, #4]
 1092 0028 9B6A     		ldr	r3, [r3, #40]
 1093 002a D31A     		subs	r3, r2, r3
 1094 002c 7A68     		ldr	r2, [r7, #4]
 1095 002e 9268     		ldr	r2, [r2, #8]
 1096 0030 C2F31202 		ubfx	r2, r2, #0, #19
 1097 0034 9342     		cmp	r3, r2
 1098 0036 04D2     		bcs	.L63
 467:/opt/XMClib/XMC_Peripheral_Library_v2.1.16/XMCLib/src/xmc_usbd.c ****   {
 468:/opt/XMClib/XMC_Peripheral_Library_v2.1.16/XMCLib/src/xmc_usbd.c ****     ep->xferLength = ep->xferTotal;
 1099              		.loc 1 468 0
 1100 0038 7B68     		ldr	r3, [r7, #4]
 1101 003a 1A6B     		ldr	r2, [r3, #48]
 1102 003c 7B68     		ldr	r3, [r7, #4]
 1103 003e 9A62     		str	r2, [r3, #40]
 1104 0040 08E0     		b	.L64
 1105              	.L63:
 469:/opt/XMClib/XMC_Peripheral_Library_v2.1.16/XMCLib/src/xmc_usbd.c ****   }
 470:/opt/XMClib/XMC_Peripheral_Library_v2.1.16/XMCLib/src/xmc_usbd.c ****   else
 471:/opt/XMClib/XMC_Peripheral_Library_v2.1.16/XMCLib/src/xmc_usbd.c ****   {
 472:/opt/XMClib/XMC_Peripheral_Library_v2.1.16/XMCLib/src/xmc_usbd.c ****     ep->xferLength += ep->maxTransferSize;
 1106              		.loc 1 472 0
 1107 0042 7B68     		ldr	r3, [r7, #4]
 1108 0044 9B6A     		ldr	r3, [r3, #40]
 1109 0046 7A68     		ldr	r2, [r7, #4]
 1110 0048 9268     		ldr	r2, [r2, #8]
 1111 004a C2F31202 		ubfx	r2, r2, #0, #19
 1112 004e 1A44     		add	r2, r2, r3
 1113 0050 7B68     		ldr	r3, [r7, #4]
 1114 0052 9A62     		str	r2, [r3, #40]
 1115              	.L64:
 473:/opt/XMClib/XMC_Peripheral_Library_v2.1.16/XMCLib/src/xmc_usbd.c ****   }
 474:/opt/XMClib/XMC_Peripheral_Library_v2.1.16/XMCLib/src/xmc_usbd.c ****   if (ep->xferLength == 0U)
 1116              		.loc 1 474 0
 1117 0054 7B68     		ldr	r3, [r7, #4]
 1118 0056 9B6A     		ldr	r3, [r3, #40]
 1119 0058 002B     		cmp	r3, #0
 1120 005a 09D1     		bne	.L65
 475:/opt/XMClib/XMC_Peripheral_Library_v2.1.16/XMCLib/src/xmc_usbd.c ****   {
 476:/opt/XMClib/XMC_Peripheral_Library_v2.1.16/XMCLib/src/xmc_usbd.c ****     size.b.xfersize = 0U;
 1121              		.loc 1 476 0
 1122 005c FB68     		ldr	r3, [r7, #12]
 1123 005e 6FF31203 		bfc	r3, #0, #19
 1124 0062 FB60     		str	r3, [r7, #12]
 477:/opt/XMClib/XMC_Peripheral_Library_v2.1.16/XMCLib/src/xmc_usbd.c ****     size.b.pktcnt = 1U;
 1125              		.loc 1 477 0
 1126 0064 FB89     		ldrh	r3, [r7, #14]	@ movhi
 1127 0066 0122     		movs	r2, #1
 1128 0068 62F3CC03 		bfi	r3, r2, #3, #10
 1129 006c FB81     		strh	r3, [r7, #14]	@ movhi
 1130 006e 6BE0     		b	.L66
 1131              	.L65:
 478:/opt/XMClib/XMC_Peripheral_Library_v2.1.16/XMCLib/src/xmc_usbd.c ****   }
 479:/opt/XMClib/XMC_Peripheral_Library_v2.1.16/XMCLib/src/xmc_usbd.c ****   else
 480:/opt/XMClib/XMC_Peripheral_Library_v2.1.16/XMCLib/src/xmc_usbd.c ****   {
 481:/opt/XMClib/XMC_Peripheral_Library_v2.1.16/XMCLib/src/xmc_usbd.c ****     if (ep->address_u.address_st.number == 0U)
 1132              		.loc 1 481 0
 1133 0070 7B68     		ldr	r3, [r7, #4]
 1134 0072 1B78     		ldrb	r3, [r3]	@ zero_extendqisi2
 1135 0074 03F00F03 		and	r3, r3, #15
 1136 0078 DBB2     		uxtb	r3, r3
 1137 007a 002B     		cmp	r3, #0
 1138 007c 10D1     		bne	.L67
 482:/opt/XMClib/XMC_Peripheral_Library_v2.1.16/XMCLib/src/xmc_usbd.c ****     {
 483:/opt/XMClib/XMC_Peripheral_Library_v2.1.16/XMCLib/src/xmc_usbd.c ****       size.b.pktcnt = 1U;
 1139              		.loc 1 483 0
 1140 007e FB89     		ldrh	r3, [r7, #14]	@ movhi
 1141 0080 0122     		movs	r2, #1
 1142 0082 62F3CC03 		bfi	r3, r2, #3, #10
 1143 0086 FB81     		strh	r3, [r7, #14]	@ movhi
 484:/opt/XMClib/XMC_Peripheral_Library_v2.1.16/XMCLib/src/xmc_usbd.c ****       /* ep->maxXferSize equals maxPacketSize */
 485:/opt/XMClib/XMC_Peripheral_Library_v2.1.16/XMCLib/src/xmc_usbd.c ****       size.b.xfersize = (uint32_t)(ep->xferLength - ep->xferCount);
 1144              		.loc 1 485 0
 1145 0088 7B68     		ldr	r3, [r7, #4]
 1146 008a 9A6A     		ldr	r2, [r3, #40]
 1147 008c 7B68     		ldr	r3, [r7, #4]
 1148 008e DB6A     		ldr	r3, [r3, #44]
 1149 0090 D31A     		subs	r3, r2, r3
 1150 0092 C3F31202 		ubfx	r2, r3, #0, #19
 1151 0096 FB68     		ldr	r3, [r7, #12]
 1152 0098 62F31203 		bfi	r3, r2, #0, #19
 1153 009c FB60     		str	r3, [r7, #12]
 1154 009e 2AE0     		b	.L68
 1155              	.L67:
 486:/opt/XMClib/XMC_Peripheral_Library_v2.1.16/XMCLib/src/xmc_usbd.c ****     }
 487:/opt/XMClib/XMC_Peripheral_Library_v2.1.16/XMCLib/src/xmc_usbd.c ****     else
 488:/opt/XMClib/XMC_Peripheral_Library_v2.1.16/XMCLib/src/xmc_usbd.c ****     {
 489:/opt/XMClib/XMC_Peripheral_Library_v2.1.16/XMCLib/src/xmc_usbd.c ****       size.b.xfersize =(uint32_t)(ep->xferLength - ep->xferCount);
 1156              		.loc 1 489 0
 1157 00a0 7B68     		ldr	r3, [r7, #4]
 1158 00a2 9A6A     		ldr	r2, [r3, #40]
 1159 00a4 7B68     		ldr	r3, [r7, #4]
 1160 00a6 DB6A     		ldr	r3, [r3, #44]
 1161 00a8 D31A     		subs	r3, r2, r3
 1162 00aa C3F31202 		ubfx	r2, r3, #0, #19
 1163 00ae FB68     		ldr	r3, [r7, #12]
 1164 00b0 62F31203 		bfi	r3, r2, #0, #19
 1165 00b4 FB60     		str	r3, [r7, #12]
 490:/opt/XMClib/XMC_Peripheral_Library_v2.1.16/XMCLib/src/xmc_usbd.c ****       size.b.pktcnt = (uint16_t)(((uint16_t)(ep->xferLength - ep->xferCount) + (uint16_t)((uint16_t
 1166              		.loc 1 490 0
 1167 00b6 7B68     		ldr	r3, [r7, #4]
 1168 00b8 9B6A     		ldr	r3, [r3, #40]
 1169 00ba 9AB2     		uxth	r2, r3
 1170 00bc 7B68     		ldr	r3, [r7, #4]
 1171 00be DB6A     		ldr	r3, [r3, #44]
 1172 00c0 9BB2     		uxth	r3, r3
 1173 00c2 D31A     		subs	r3, r2, r3
 1174 00c4 9BB2     		uxth	r3, r3
 1175 00c6 1A46     		mov	r2, r3
 1176 00c8 7B68     		ldr	r3, [r7, #4]
 1177 00ca 5B68     		ldr	r3, [r3, #4]
 1178 00cc C3F3C623 		ubfx	r3, r3, #11, #7
 1179 00d0 DBB2     		uxtb	r3, r3
 1180 00d2 9BB2     		uxth	r3, r3
 1181 00d4 013B     		subs	r3, r3, #1
 1182 00d6 9BB2     		uxth	r3, r3
 1183 00d8 1344     		add	r3, r3, r2
 491:/opt/XMClib/XMC_Peripheral_Library_v2.1.16/XMCLib/src/xmc_usbd.c ****     		 ep->maxPacketSize);
 1184              		.loc 1 491 0
 1185 00da 7A68     		ldr	r2, [r7, #4]
 1186 00dc 5268     		ldr	r2, [r2, #4]
 1187 00de C2F3C622 		ubfx	r2, r2, #11, #7
 1188 00e2 D2B2     		uxtb	r2, r2
 490:/opt/XMClib/XMC_Peripheral_Library_v2.1.16/XMCLib/src/xmc_usbd.c ****       size.b.pktcnt = (uint16_t)(((uint16_t)(ep->xferLength - ep->xferCount) + (uint16_t)((uint16_t
 1189              		.loc 1 490 0
 1190 00e4 93FBF2F3 		sdiv	r3, r3, r2
 1191 00e8 C3F30903 		ubfx	r3, r3, #0, #10
 1192 00ec 9AB2     		uxth	r2, r3
 1193 00ee FB89     		ldrh	r3, [r7, #14]	@ movhi
 1194 00f0 62F3CC03 		bfi	r3, r2, #3, #10
 1195 00f4 FB81     		strh	r3, [r7, #14]	@ movhi
 1196              	.L68:
 492:/opt/XMClib/XMC_Peripheral_Library_v2.1.16/XMCLib/src/xmc_usbd.c ****     }
 493:/opt/XMClib/XMC_Peripheral_Library_v2.1.16/XMCLib/src/xmc_usbd.c ****     if(usbd_init->usbd_transfer_mode == XMC_USBD_USE_DMA)
 1197              		.loc 1 493 0
 1198 00f6 274B     		ldr	r3, .L70+4
 1199 00f8 1B68     		ldr	r3, [r3]
 1200 00fa 5B7B     		ldrb	r3, [r3, #13]	@ zero_extendqisi2
 1201 00fc 002B     		cmp	r3, #0
 1202 00fe 0CD1     		bne	.L69
 494:/opt/XMClib/XMC_Peripheral_Library_v2.1.16/XMCLib/src/xmc_usbd.c ****     {
 495:/opt/XMClib/XMC_Peripheral_Library_v2.1.16/XMCLib/src/xmc_usbd.c ****       /* Program dma*/
 496:/opt/XMClib/XMC_Peripheral_Library_v2.1.16/XMCLib/src/xmc_usbd.c ****       xmc_device.endpoint_in_register[ep->address_u.address_st.number]->diepdma = (uint32_t)ep->xfe
 1203              		.loc 1 496 0
 1204 0100 7B68     		ldr	r3, [r7, #4]
 1205 0102 596A     		ldr	r1, [r3, #36]
 1206 0104 7B68     		ldr	r3, [r7, #4]
 1207 0106 1B78     		ldrb	r3, [r3]
 1208 0108 C3F30303 		ubfx	r3, r3, #0, #4
 1209 010c DBB2     		uxtb	r3, r3
 1210 010e 204A     		ldr	r2, .L70
 1211 0110 6A33     		adds	r3, r3, #106
 1212 0112 52F82330 		ldr	r3, [r2, r3, lsl #2]
 1213 0116 0A46     		mov	r2, r1
 1214 0118 5A61     		str	r2, [r3, #20]
 1215              	.L69:
 497:/opt/XMClib/XMC_Peripheral_Library_v2.1.16/XMCLib/src/xmc_usbd.c ****     }
 498:/opt/XMClib/XMC_Peripheral_Library_v2.1.16/XMCLib/src/xmc_usbd.c ****     if(usbd_init->usbd_transfer_mode == XMC_USBD_USE_FIFO)
 1216              		.loc 1 498 0
 1217 011a 1E4B     		ldr	r3, .L70+4
 1218 011c 1B68     		ldr	r3, [r3]
 1219 011e 5B7B     		ldrb	r3, [r3, #13]	@ zero_extendqisi2
 1220 0120 012B     		cmp	r3, #1
 1221 0122 11D1     		bne	.L66
 499:/opt/XMClib/XMC_Peripheral_Library_v2.1.16/XMCLib/src/xmc_usbd.c ****     {
 500:/opt/XMClib/XMC_Peripheral_Library_v2.1.16/XMCLib/src/xmc_usbd.c ****       /* enable fifo empty interrupt */
 501:/opt/XMClib/XMC_Peripheral_Library_v2.1.16/XMCLib/src/xmc_usbd.c **** 			xmc_device.device_register->dtknqr4_fifoemptymsk |= (uint32_t)((uint32_t)1U << (uint8_t)ep->addr
 1222              		.loc 1 501 0
 1223 0124 1A4B     		ldr	r3, .L70
 1224 0126 D3F8A431 		ldr	r3, [r3, #420]
 1225 012a 596B     		ldr	r1, [r3, #52]
 1226 012c 7B68     		ldr	r3, [r7, #4]
 1227 012e 1B78     		ldrb	r3, [r3]
 1228 0130 C3F30303 		ubfx	r3, r3, #0, #4
 1229 0134 DBB2     		uxtb	r3, r3
 1230 0136 1A46     		mov	r2, r3
 1231 0138 0123     		movs	r3, #1
 1232 013a 03FA02F2 		lsl	r2, r3, r2
 1233 013e 144B     		ldr	r3, .L70
 1234 0140 D3F8A431 		ldr	r3, [r3, #420]
 1235 0144 0A43     		orrs	r2, r2, r1
 1236 0146 5A63     		str	r2, [r3, #52]
 1237              	.L66:
 502:/opt/XMClib/XMC_Peripheral_Library_v2.1.16/XMCLib/src/xmc_usbd.c ****     }
 503:/opt/XMClib/XMC_Peripheral_Library_v2.1.16/XMCLib/src/xmc_usbd.c ****   }
 504:/opt/XMClib/XMC_Peripheral_Library_v2.1.16/XMCLib/src/xmc_usbd.c **** 
 505:/opt/XMClib/XMC_Peripheral_Library_v2.1.16/XMCLib/src/xmc_usbd.c ****   /* Program size of transfer and enable endpoint */
 506:/opt/XMClib/XMC_Peripheral_Library_v2.1.16/XMCLib/src/xmc_usbd.c ****   xmc_device.endpoint_in_register[ep->address_u.address_st.number]->dieptsiz = size.d32;
 1238              		.loc 1 506 0
 1239 0148 7B68     		ldr	r3, [r7, #4]
 1240 014a 1B78     		ldrb	r3, [r3]
 1241 014c C3F30303 		ubfx	r3, r3, #0, #4
 1242 0150 DBB2     		uxtb	r3, r3
 1243 0152 0F4A     		ldr	r2, .L70
 1244 0154 6A33     		adds	r3, r3, #106
 1245 0156 52F82330 		ldr	r3, [r2, r3, lsl #2]
 1246 015a FA68     		ldr	r2, [r7, #12]
 1247 015c 1A61     		str	r2, [r3, #16]
 507:/opt/XMClib/XMC_Peripheral_Library_v2.1.16/XMCLib/src/xmc_usbd.c ****   ctl.b.epena = 1U;
 1248              		.loc 1 507 0
 1249 015e FB7A     		ldrb	r3, [r7, #11]
 1250 0160 43F08003 		orr	r3, r3, #128
 1251 0164 FB72     		strb	r3, [r7, #11]
 508:/opt/XMClib/XMC_Peripheral_Library_v2.1.16/XMCLib/src/xmc_usbd.c ****   ctl.b.cnak = 1U;
 1252              		.loc 1 508 0
 1253 0166 FB7A     		ldrb	r3, [r7, #11]
 1254 0168 43F00403 		orr	r3, r3, #4
 1255 016c FB72     		strb	r3, [r7, #11]
 509:/opt/XMClib/XMC_Peripheral_Library_v2.1.16/XMCLib/src/xmc_usbd.c ****   xmc_device.endpoint_in_register[ep->address_u.address_st.number]->diepctl = ctl.d32;
 1256              		.loc 1 509 0
 1257 016e 7B68     		ldr	r3, [r7, #4]
 1258 0170 1B78     		ldrb	r3, [r3]
 1259 0172 C3F30303 		ubfx	r3, r3, #0, #4
 1260 0176 DBB2     		uxtb	r3, r3
 1261 0178 054A     		ldr	r2, .L70
 1262 017a 6A33     		adds	r3, r3, #106
 1263 017c 52F82330 		ldr	r3, [r2, r3, lsl #2]
 1264 0180 BA68     		ldr	r2, [r7, #8]
 1265 0182 1A60     		str	r2, [r3]
 510:/opt/XMClib/XMC_Peripheral_Library_v2.1.16/XMCLib/src/xmc_usbd.c **** }
 1266              		.loc 1 510 0
 1267 0184 00BF     		nop
 1268 0186 1437     		adds	r7, r7, #20
 1269              	.LCFI51:
 1270              		.cfi_def_cfa_offset 4
 1271 0188 BD46     		mov	sp, r7
 1272              	.LCFI52:
 1273              		.cfi_def_cfa_register 13
 1274              		@ sp needed
 1275 018a 5DF8047B 		ldr	r7, [sp], #4
 1276              	.LCFI53:
 1277              		.cfi_restore 7
 1278              		.cfi_def_cfa_offset 0
 1279 018e 7047     		bx	lr
 1280              	.L71:
 1281              		.align	2
 1282              	.L70:
 1283 0190 00000000 		.word	xmc_device
 1284 0194 00000000 		.word	usbd_init
 1285              		.cfi_endproc
 1286              	.LFE170:
 1288              		.section	.text.XMC_USBD_lHandleUSBReset,"ax",%progbits
 1289              		.align	1
 1290              		.syntax unified
 1291              		.thumb
 1292              		.thumb_func
 1293              		.fpu fpv4-sp-d16
 1295              	XMC_USBD_lHandleUSBReset:
 1296              	.LFB171:
 511:/opt/XMClib/XMC_Peripheral_Library_v2.1.16/XMCLib/src/xmc_usbd.c **** 
 512:/opt/XMClib/XMC_Peripheral_Library_v2.1.16/XMCLib/src/xmc_usbd.c **** 
 513:/opt/XMClib/XMC_Peripheral_Library_v2.1.16/XMCLib/src/xmc_usbd.c **** /**
 514:/opt/XMClib/XMC_Peripheral_Library_v2.1.16/XMCLib/src/xmc_usbd.c ****  * @brief Handles the USBD reset interrupt
 515:/opt/XMClib/XMC_Peripheral_Library_v2.1.16/XMCLib/src/xmc_usbd.c ****  *
 516:/opt/XMClib/XMC_Peripheral_Library_v2.1.16/XMCLib/src/xmc_usbd.c ****  * When ever the host sets the bus into reset condition the usb otg_core generates
 517:/opt/XMClib/XMC_Peripheral_Library_v2.1.16/XMCLib/src/xmc_usbd.c ****  * an interrupt, which is handled by this function. It resets the complete otg_core
 518:/opt/XMClib/XMC_Peripheral_Library_v2.1.16/XMCLib/src/xmc_usbd.c ****  * into the default state.
 519:/opt/XMClib/XMC_Peripheral_Library_v2.1.16/XMCLib/src/xmc_usbd.c ****  */
 520:/opt/XMClib/XMC_Peripheral_Library_v2.1.16/XMCLib/src/xmc_usbd.c **** static void XMC_USBD_lHandleUSBReset(const XMC_USBD_t *const obj) 
 521:/opt/XMClib/XMC_Peripheral_Library_v2.1.16/XMCLib/src/xmc_usbd.c **** {
 1297              		.loc 1 521 0
 1298              		.cfi_startproc
 1299              		@ args = 0, pretend = 0, frame = 32
 1300              		@ frame_needed = 1, uses_anonymous_args = 0
 1301 0000 80B5     		push	{r7, lr}
 1302              	.LCFI54:
 1303              		.cfi_def_cfa_offset 8
 1304              		.cfi_offset 7, -8
 1305              		.cfi_offset 14, -4
 1306 0002 88B0     		sub	sp, sp, #32
 1307              	.LCFI55:
 1308              		.cfi_def_cfa_offset 40
 1309 0004 00AF     		add	r7, sp, #0
 1310              	.LCFI56:
 1311              		.cfi_def_cfa_register 7
 1312 0006 7860     		str	r0, [r7, #4]
 522:/opt/XMClib/XMC_Peripheral_Library_v2.1.16/XMCLib/src/xmc_usbd.c ****   uint32_t i;
 523:/opt/XMClib/XMC_Peripheral_Library_v2.1.16/XMCLib/src/xmc_usbd.c ****   depctl_data_t epctl;
 524:/opt/XMClib/XMC_Peripheral_Library_v2.1.16/XMCLib/src/xmc_usbd.c ****   dctl_data_t dctl;
 525:/opt/XMClib/XMC_Peripheral_Library_v2.1.16/XMCLib/src/xmc_usbd.c ****   fifosize_data_t gnptxfsiz;
 526:/opt/XMClib/XMC_Peripheral_Library_v2.1.16/XMCLib/src/xmc_usbd.c ****   daint_data_t daint;
 527:/opt/XMClib/XMC_Peripheral_Library_v2.1.16/XMCLib/src/xmc_usbd.c ****   dcfg_data_t dcfg;
 528:/opt/XMClib/XMC_Peripheral_Library_v2.1.16/XMCLib/src/xmc_usbd.c **** 	
 529:/opt/XMClib/XMC_Peripheral_Library_v2.1.16/XMCLib/src/xmc_usbd.c ****   /* Clear the Remote Wakeup Signaling */
 530:/opt/XMClib/XMC_Peripheral_Library_v2.1.16/XMCLib/src/xmc_usbd.c ****   dctl.d32 = xmc_device.device_register->dctl;
 1313              		.loc 1 530 0
 1314 0008 504B     		ldr	r3, .L78
 1315 000a D3F8A431 		ldr	r3, [r3, #420]
 1316 000e 5B68     		ldr	r3, [r3, #4]
 1317 0010 7B61     		str	r3, [r7, #20]
 531:/opt/XMClib/XMC_Peripheral_Library_v2.1.16/XMCLib/src/xmc_usbd.c ****   dctl.b.rmtwkupsig = 1U;
 1318              		.loc 1 531 0
 1319 0012 3B7D     		ldrb	r3, [r7, #20]
 1320 0014 43F00103 		orr	r3, r3, #1
 1321 0018 3B75     		strb	r3, [r7, #20]
 532:/opt/XMClib/XMC_Peripheral_Library_v2.1.16/XMCLib/src/xmc_usbd.c ****   xmc_device.device_register->dctl = dctl.d32;
 1322              		.loc 1 532 0
 1323 001a 4C4B     		ldr	r3, .L78
 1324 001c D3F8A431 		ldr	r3, [r3, #420]
 1325 0020 7A69     		ldr	r2, [r7, #20]
 1326 0022 5A60     		str	r2, [r3, #4]
 533:/opt/XMClib/XMC_Peripheral_Library_v2.1.16/XMCLib/src/xmc_usbd.c **** 
 534:/opt/XMClib/XMC_Peripheral_Library_v2.1.16/XMCLib/src/xmc_usbd.c ****   /* enable naks for all eps */
 535:/opt/XMClib/XMC_Peripheral_Library_v2.1.16/XMCLib/src/xmc_usbd.c ****   for (i = 0U;i < (uint8_t)XMC_USBD_NUM_EPS;i++)
 1327              		.loc 1 535 0
 1328 0024 0023     		movs	r3, #0
 1329 0026 FB61     		str	r3, [r7, #28]
 1330 0028 1AE0     		b	.L73
 1331              	.L74:
 536:/opt/XMClib/XMC_Peripheral_Library_v2.1.16/XMCLib/src/xmc_usbd.c ****   {
 537:/opt/XMClib/XMC_Peripheral_Library_v2.1.16/XMCLib/src/xmc_usbd.c ****     epctl.d32 = xmc_device.endpoint_out_register[i]->doepctl;
 1332              		.loc 1 537 0 discriminator 3
 1333 002a 484A     		ldr	r2, .L78
 1334 002c FB69     		ldr	r3, [r7, #28]
 1335 002e 7033     		adds	r3, r3, #112
 1336 0030 9B00     		lsls	r3, r3, #2
 1337 0032 1344     		add	r3, r3, r2
 1338 0034 5B68     		ldr	r3, [r3, #4]
 1339 0036 1B68     		ldr	r3, [r3]
 1340 0038 BB61     		str	r3, [r7, #24]
 538:/opt/XMClib/XMC_Peripheral_Library_v2.1.16/XMCLib/src/xmc_usbd.c **** 		epctl.b.snak = 1U;
 1341              		.loc 1 538 0 discriminator 3
 1342 003a FB7E     		ldrb	r3, [r7, #27]
 1343 003c 43F00803 		orr	r3, r3, #8
 1344 0040 FB76     		strb	r3, [r7, #27]
 539:/opt/XMClib/XMC_Peripheral_Library_v2.1.16/XMCLib/src/xmc_usbd.c **** 		epctl.b.stall = 0U;
 1345              		.loc 1 539 0 discriminator 3
 1346 0042 BB7E     		ldrb	r3, [r7, #26]
 1347 0044 6FF34513 		bfc	r3, #5, #1
 1348 0048 BB76     		strb	r3, [r7, #26]
 540:/opt/XMClib/XMC_Peripheral_Library_v2.1.16/XMCLib/src/xmc_usbd.c **** 		xmc_device.endpoint_out_register[i]->doepctl = epctl.d32;
 1349              		.loc 1 540 0 discriminator 3
 1350 004a 404A     		ldr	r2, .L78
 1351 004c FB69     		ldr	r3, [r7, #28]
 1352 004e 7033     		adds	r3, r3, #112
 1353 0050 9B00     		lsls	r3, r3, #2
 1354 0052 1344     		add	r3, r3, r2
 1355 0054 5B68     		ldr	r3, [r3, #4]
 1356 0056 BA69     		ldr	r2, [r7, #24]
 1357 0058 1A60     		str	r2, [r3]
 535:/opt/XMClib/XMC_Peripheral_Library_v2.1.16/XMCLib/src/xmc_usbd.c ****   {
 1358              		.loc 1 535 0 discriminator 3
 1359 005a FB69     		ldr	r3, [r7, #28]
 1360 005c 0133     		adds	r3, r3, #1
 1361 005e FB61     		str	r3, [r7, #28]
 1362              	.L73:
 535:/opt/XMClib/XMC_Peripheral_Library_v2.1.16/XMCLib/src/xmc_usbd.c ****   {
 1363              		.loc 1 535 0 is_stmt 0 discriminator 1
 1364 0060 FB69     		ldr	r3, [r7, #28]
 1365 0062 062B     		cmp	r3, #6
 1366 0064 E1D9     		bls	.L74
 541:/opt/XMClib/XMC_Peripheral_Library_v2.1.16/XMCLib/src/xmc_usbd.c ****   }
 542:/opt/XMClib/XMC_Peripheral_Library_v2.1.16/XMCLib/src/xmc_usbd.c **** 
 543:/opt/XMClib/XMC_Peripheral_Library_v2.1.16/XMCLib/src/xmc_usbd.c ****   /* Configure fifos */
 544:/opt/XMClib/XMC_Peripheral_Library_v2.1.16/XMCLib/src/xmc_usbd.c ****   /* Calculate the size of the rx fifo */
 545:/opt/XMClib/XMC_Peripheral_Library_v2.1.16/XMCLib/src/xmc_usbd.c ****   xmc_device.global_register->grxfsiz = 64U;
 1367              		.loc 1 545 0 is_stmt 1
 1368 0066 394B     		ldr	r3, .L78
 1369 0068 D3F8A031 		ldr	r3, [r3, #416]
 1370 006c 4022     		movs	r2, #64
 1371 006e 5A62     		str	r2, [r3, #36]
 546:/opt/XMClib/XMC_Peripheral_Library_v2.1.16/XMCLib/src/xmc_usbd.c ****   /* Calculate the size of the tx fifo for ep 0 */  
 547:/opt/XMClib/XMC_Peripheral_Library_v2.1.16/XMCLib/src/xmc_usbd.c ****   gnptxfsiz.d32 = 0U;
 1372              		.loc 1 547 0
 1373 0070 0023     		movs	r3, #0
 1374 0072 3B61     		str	r3, [r7, #16]
 548:/opt/XMClib/XMC_Peripheral_Library_v2.1.16/XMCLib/src/xmc_usbd.c ****   gnptxfsiz.b.depth = 16U;
 1375              		.loc 1 548 0
 1376 0074 1023     		movs	r3, #16
 1377 0076 7B82     		strh	r3, [r7, #18]	@ movhi
 549:/opt/XMClib/XMC_Peripheral_Library_v2.1.16/XMCLib/src/xmc_usbd.c ****   gnptxfsiz.b.startaddr = 64U;
 1378              		.loc 1 549 0
 1379 0078 4023     		movs	r3, #64
 1380 007a 3B82     		strh	r3, [r7, #16]	@ movhi
 550:/opt/XMClib/XMC_Peripheral_Library_v2.1.16/XMCLib/src/xmc_usbd.c ****   xmc_device.global_register->gnptxfsiz = gnptxfsiz.d32;
 1381              		.loc 1 550 0
 1382 007c 334B     		ldr	r3, .L78
 1383 007e D3F8A031 		ldr	r3, [r3, #416]
 1384 0082 3A69     		ldr	r2, [r7, #16]
 1385 0084 9A62     		str	r2, [r3, #40]
 551:/opt/XMClib/XMC_Peripheral_Library_v2.1.16/XMCLib/src/xmc_usbd.c ****   /* calculate the size for the rest */
 552:/opt/XMClib/XMC_Peripheral_Library_v2.1.16/XMCLib/src/xmc_usbd.c ****   for (i = 1U;i < (uint8_t)XMC_USBD_NUM_TX_FIFOS;i++)
 1386              		.loc 1 552 0
 1387 0086 0123     		movs	r3, #1
 1388 0088 FB61     		str	r3, [r7, #28]
 1389 008a 11E0     		b	.L75
 1390              	.L76:
 553:/opt/XMClib/XMC_Peripheral_Library_v2.1.16/XMCLib/src/xmc_usbd.c ****   {
 554:/opt/XMClib/XMC_Peripheral_Library_v2.1.16/XMCLib/src/xmc_usbd.c ****     xmc_device.global_register->dtxfsiz[i- 1U] = (uint32_t)(((256U + (i*(64U)))/4U) | ((uint32_t)16
 1391              		.loc 1 554 0 discriminator 3
 1392 008c FB69     		ldr	r3, [r7, #28]
 1393 008e 0433     		adds	r3, r3, #4
 1394 0090 9B01     		lsls	r3, r3, #6
 1395 0092 9A08     		lsrs	r2, r3, #2
 1396 0094 2D4B     		ldr	r3, .L78
 1397 0096 D3F8A011 		ldr	r1, [r3, #416]
 1398 009a FB69     		ldr	r3, [r7, #28]
 1399 009c 013B     		subs	r3, r3, #1
 1400 009e 42F48012 		orr	r2, r2, #1048576
 1401 00a2 4033     		adds	r3, r3, #64
 1402 00a4 9B00     		lsls	r3, r3, #2
 1403 00a6 0B44     		add	r3, r3, r1
 1404 00a8 5A60     		str	r2, [r3, #4]
 552:/opt/XMClib/XMC_Peripheral_Library_v2.1.16/XMCLib/src/xmc_usbd.c ****   {
 1405              		.loc 1 552 0 discriminator 3
 1406 00aa FB69     		ldr	r3, [r7, #28]
 1407 00ac 0133     		adds	r3, r3, #1
 1408 00ae FB61     		str	r3, [r7, #28]
 1409              	.L75:
 552:/opt/XMClib/XMC_Peripheral_Library_v2.1.16/XMCLib/src/xmc_usbd.c ****   {
 1410              		.loc 1 552 0 is_stmt 0 discriminator 1
 1411 00b0 FB69     		ldr	r3, [r7, #28]
 1412 00b2 062B     		cmp	r3, #6
 1413 00b4 EAD9     		bls	.L76
 555:/opt/XMClib/XMC_Peripheral_Library_v2.1.16/XMCLib/src/xmc_usbd.c ****   }
 556:/opt/XMClib/XMC_Peripheral_Library_v2.1.16/XMCLib/src/xmc_usbd.c **** 
 557:/opt/XMClib/XMC_Peripheral_Library_v2.1.16/XMCLib/src/xmc_usbd.c ****   /* flush the fifos for proper operation */
 558:/opt/XMClib/XMC_Peripheral_Library_v2.1.16/XMCLib/src/xmc_usbd.c ****   XMC_USBD_lFlushTXFifo(0x10U); /* 0x10 == all fifos, see doc */
 1414              		.loc 1 558 0 is_stmt 1
 1415 00b6 1020     		movs	r0, #16
 1416 00b8 FFF7FEFF 		bl	XMC_USBD_lFlushTXFifo
 559:/opt/XMClib/XMC_Peripheral_Library_v2.1.16/XMCLib/src/xmc_usbd.c ****   XMC_USBD_lFlushTXFifo(0x0U);
 1417              		.loc 1 559 0
 1418 00bc 0020     		movs	r0, #0
 1419 00be FFF7FEFF 		bl	XMC_USBD_lFlushTXFifo
 560:/opt/XMClib/XMC_Peripheral_Library_v2.1.16/XMCLib/src/xmc_usbd.c ****   XMC_USBD_lFlushRXFifo();
 1420              		.loc 1 560 0
 1421 00c2 FFF7FEFF 		bl	XMC_USBD_lFlushRXFifo
 561:/opt/XMClib/XMC_Peripheral_Library_v2.1.16/XMCLib/src/xmc_usbd.c ****   /* Flush learning queue not needed due to fifo config */
 562:/opt/XMClib/XMC_Peripheral_Library_v2.1.16/XMCLib/src/xmc_usbd.c ****   /* enable ep0 interrupts */  
 563:/opt/XMClib/XMC_Peripheral_Library_v2.1.16/XMCLib/src/xmc_usbd.c ****   daint.d32 = 0U;
 1422              		.loc 1 563 0
 1423 00c6 0023     		movs	r3, #0
 1424 00c8 FB60     		str	r3, [r7, #12]
 564:/opt/XMClib/XMC_Peripheral_Library_v2.1.16/XMCLib/src/xmc_usbd.c ****   daint.b.inep0 = 1U;
 1425              		.loc 1 564 0
 1426 00ca 3B7B     		ldrb	r3, [r7, #12]
 1427 00cc 43F00103 		orr	r3, r3, #1
 1428 00d0 3B73     		strb	r3, [r7, #12]
 565:/opt/XMClib/XMC_Peripheral_Library_v2.1.16/XMCLib/src/xmc_usbd.c ****   daint.b.outep0 = 1U;
 1429              		.loc 1 565 0
 1430 00d2 BB7B     		ldrb	r3, [r7, #14]
 1431 00d4 43F00103 		orr	r3, r3, #1
 1432 00d8 BB73     		strb	r3, [r7, #14]
 566:/opt/XMClib/XMC_Peripheral_Library_v2.1.16/XMCLib/src/xmc_usbd.c ****   xmc_device.device_register->daintmsk = daint.d32;
 1433              		.loc 1 566 0
 1434 00da 1C4B     		ldr	r3, .L78
 1435 00dc D3F8A431 		ldr	r3, [r3, #420]
 1436 00e0 FA68     		ldr	r2, [r7, #12]
 1437 00e2 DA61     		str	r2, [r3, #28]
 567:/opt/XMClib/XMC_Peripheral_Library_v2.1.16/XMCLib/src/xmc_usbd.c **** 
 568:/opt/XMClib/XMC_Peripheral_Library_v2.1.16/XMCLib/src/xmc_usbd.c ****   /* enable endpoint interrupts */
 569:/opt/XMClib/XMC_Peripheral_Library_v2.1.16/XMCLib/src/xmc_usbd.c ****   /* out ep interrupts */
 570:/opt/XMClib/XMC_Peripheral_Library_v2.1.16/XMCLib/src/xmc_usbd.c ****   XMC_USBD_EnableEventOUTEP(((uint32_t)XMC_USBD_EVENT_OUT_EP_TX_COMPLET | (uint32_t)XMC_USBD_EVENT_
 1438              		.loc 1 570 0
 1439 00e4 0F20     		movs	r0, #15
 1440 00e6 FFF7FEFF 		bl	XMC_USBD_EnableEventOUTEP
 571:/opt/XMClib/XMC_Peripheral_Library_v2.1.16/XMCLib/src/xmc_usbd.c **** 		  	  	  	  	  	  (uint32_t)XMC_USBD_EVENT_OUT_EP_SETUP | (uint32_t)XMC_USBD_EVENT_OUT_EP_AHB_ERRO
 572:/opt/XMClib/XMC_Peripheral_Library_v2.1.16/XMCLib/src/xmc_usbd.c **** 
 573:/opt/XMClib/XMC_Peripheral_Library_v2.1.16/XMCLib/src/xmc_usbd.c ****   /*in ep interrupts */
 574:/opt/XMClib/XMC_Peripheral_Library_v2.1.16/XMCLib/src/xmc_usbd.c ****   XMC_USBD_EnableEventINEP(((uint32_t)XMC_USBD_EVENT_IN_EP_TX_COMPLET | (uint32_t)XMC_USBD_EVENT_IN
 1441              		.loc 1 574 0
 1442 00ea 0F20     		movs	r0, #15
 1443 00ec FFF7FEFF 		bl	XMC_USBD_EnableEventINEP
 575:/opt/XMClib/XMC_Peripheral_Library_v2.1.16/XMCLib/src/xmc_usbd.c **** 		  (uint32_t)XMC_USBD_EVENT_IN_EP_AHB_ERROR | (uint32_t)XMC_USBD_EVENT_IN_EP_TIMEOUT));
 576:/opt/XMClib/XMC_Peripheral_Library_v2.1.16/XMCLib/src/xmc_usbd.c **** 
 577:/opt/XMClib/XMC_Peripheral_Library_v2.1.16/XMCLib/src/xmc_usbd.c **** 
 578:/opt/XMClib/XMC_Peripheral_Library_v2.1.16/XMCLib/src/xmc_usbd.c ****   /* Clear device Address */  
 579:/opt/XMClib/XMC_Peripheral_Library_v2.1.16/XMCLib/src/xmc_usbd.c ****   dcfg.d32 = xmc_device.device_register->dcfg;
 1444              		.loc 1 579 0
 1445 00f0 164B     		ldr	r3, .L78
 1446 00f2 D3F8A431 		ldr	r3, [r3, #420]
 1447 00f6 1B68     		ldr	r3, [r3]
 1448 00f8 BB60     		str	r3, [r7, #8]
 580:/opt/XMClib/XMC_Peripheral_Library_v2.1.16/XMCLib/src/xmc_usbd.c ****   dcfg.b.devaddr = 0U;
 1449              		.loc 1 580 0
 1450 00fa 3B89     		ldrh	r3, [r7, #8]	@ movhi
 1451 00fc 6FF30A13 		bfc	r3, #4, #7
 1452 0100 3B81     		strh	r3, [r7, #8]	@ movhi
 581:/opt/XMClib/XMC_Peripheral_Library_v2.1.16/XMCLib/src/xmc_usbd.c ****   xmc_device.device_register->dcfg = dcfg.d32;
 1453              		.loc 1 581 0
 1454 0102 124B     		ldr	r3, .L78
 1455 0104 D3F8A431 		ldr	r3, [r3, #420]
 1456 0108 BA68     		ldr	r2, [r7, #8]
 1457 010a 1A60     		str	r2, [r3]
 582:/opt/XMClib/XMC_Peripheral_Library_v2.1.16/XMCLib/src/xmc_usbd.c **** 
 583:/opt/XMClib/XMC_Peripheral_Library_v2.1.16/XMCLib/src/xmc_usbd.c ****   if(obj->usbd_transfer_mode == XMC_USBD_USE_FIFO)
 1458              		.loc 1 583 0
 1459 010c 7B68     		ldr	r3, [r7, #4]
 1460 010e 5B7B     		ldrb	r3, [r3, #13]	@ zero_extendqisi2
 1461 0110 012B     		cmp	r3, #1
 1462 0112 04D1     		bne	.L77
 584:/opt/XMClib/XMC_Peripheral_Library_v2.1.16/XMCLib/src/xmc_usbd.c ****   {
 585:/opt/XMClib/XMC_Peripheral_Library_v2.1.16/XMCLib/src/xmc_usbd.c ****     /* Clear Empty interrupt */
 586:/opt/XMClib/XMC_Peripheral_Library_v2.1.16/XMCLib/src/xmc_usbd.c ****     xmc_device.device_register->dtknqr4_fifoemptymsk = 0U;
 1463              		.loc 1 586 0
 1464 0114 0D4B     		ldr	r3, .L78
 1465 0116 D3F8A431 		ldr	r3, [r3, #420]
 1466 011a 0022     		movs	r2, #0
 1467 011c 5A63     		str	r2, [r3, #52]
 1468              	.L77:
 587:/opt/XMClib/XMC_Peripheral_Library_v2.1.16/XMCLib/src/xmc_usbd.c ****   }
 588:/opt/XMClib/XMC_Peripheral_Library_v2.1.16/XMCLib/src/xmc_usbd.c **** 
 589:/opt/XMClib/XMC_Peripheral_Library_v2.1.16/XMCLib/src/xmc_usbd.c ****   xmc_device.ep[0U].outInUse = 0U;
 1469              		.loc 1 589 0
 1470 011e 0B4A     		ldr	r2, .L78
 1471 0120 5368     		ldr	r3, [r2, #4]
 1472 0122 6FF30413 		bfc	r3, #4, #1
 1473 0126 5360     		str	r3, [r2, #4]
 590:/opt/XMClib/XMC_Peripheral_Library_v2.1.16/XMCLib/src/xmc_usbd.c ****   xmc_device.ep[0U].inInUse = 0U;
 1474              		.loc 1 590 0
 1475 0128 084A     		ldr	r2, .L78
 1476 012a 5368     		ldr	r3, [r2, #4]
 1477 012c 6FF3C303 		bfc	r3, #3, #1
 1478 0130 5360     		str	r3, [r2, #4]
 591:/opt/XMClib/XMC_Peripheral_Library_v2.1.16/XMCLib/src/xmc_usbd.c **** 
 592:/opt/XMClib/XMC_Peripheral_Library_v2.1.16/XMCLib/src/xmc_usbd.c ****   xmc_device.DeviceEvent_cb(XMC_USBD_EVENT_RESET);
 1479              		.loc 1 592 0
 1480 0132 064B     		ldr	r3, .L78
 1481 0134 D3F80032 		ldr	r3, [r3, #512]
 1482 0138 0420     		movs	r0, #4
 1483 013a 9847     		blx	r3
 1484              	.LVL0:
 593:/opt/XMClib/XMC_Peripheral_Library_v2.1.16/XMCLib/src/xmc_usbd.c **** 
 594:/opt/XMClib/XMC_Peripheral_Library_v2.1.16/XMCLib/src/xmc_usbd.c ****   /* clear reset intr */
 595:/opt/XMClib/XMC_Peripheral_Library_v2.1.16/XMCLib/src/xmc_usbd.c ****   XMC_USBD_ClearEvent(XMC_USBD_EVENT_RESET);
 1485              		.loc 1 595 0
 1486 013c 0420     		movs	r0, #4
 1487 013e FFF7FEFF 		bl	XMC_USBD_ClearEvent
 596:/opt/XMClib/XMC_Peripheral_Library_v2.1.16/XMCLib/src/xmc_usbd.c **** }
 1488              		.loc 1 596 0
 1489 0142 00BF     		nop
 1490 0144 2037     		adds	r7, r7, #32
 1491              	.LCFI57:
 1492              		.cfi_def_cfa_offset 8
 1493 0146 BD46     		mov	sp, r7
 1494              	.LCFI58:
 1495              		.cfi_def_cfa_register 13
 1496              		@ sp needed
 1497 0148 80BD     		pop	{r7, pc}
 1498              	.L79:
 1499 014a 00BF     		.align	2
 1500              	.L78:
 1501 014c 00000000 		.word	xmc_device
 1502              		.cfi_endproc
 1503              	.LFE171:
 1505              		.section	.text.XMC_USBD_lHandleOTGInt,"ax",%progbits
 1506              		.align	1
 1507              		.syntax unified
 1508              		.thumb
 1509              		.thumb_func
 1510              		.fpu fpv4-sp-d16
 1512              	XMC_USBD_lHandleOTGInt:
 1513              	.LFB172:
 597:/opt/XMClib/XMC_Peripheral_Library_v2.1.16/XMCLib/src/xmc_usbd.c **** 
 598:/opt/XMClib/XMC_Peripheral_Library_v2.1.16/XMCLib/src/xmc_usbd.c **** /**
 599:/opt/XMClib/XMC_Peripheral_Library_v2.1.16/XMCLib/src/xmc_usbd.c **** * @brief Handle OTG Interrupt
 600:/opt/XMClib/XMC_Peripheral_Library_v2.1.16/XMCLib/src/xmc_usbd.c **** *
 601:/opt/XMClib/XMC_Peripheral_Library_v2.1.16/XMCLib/src/xmc_usbd.c **** * It detects especially connect and disconnect events.
 602:/opt/XMClib/XMC_Peripheral_Library_v2.1.16/XMCLib/src/xmc_usbd.c **** */
 603:/opt/XMClib/XMC_Peripheral_Library_v2.1.16/XMCLib/src/xmc_usbd.c **** static void XMC_USBD_lHandleOTGInt(void) 
 604:/opt/XMClib/XMC_Peripheral_Library_v2.1.16/XMCLib/src/xmc_usbd.c **** {
 1514              		.loc 1 604 0
 1515              		.cfi_startproc
 1516              		@ args = 0, pretend = 0, frame = 8
 1517              		@ frame_needed = 1, uses_anonymous_args = 0
 1518 0000 80B5     		push	{r7, lr}
 1519              	.LCFI59:
 1520              		.cfi_def_cfa_offset 8
 1521              		.cfi_offset 7, -8
 1522              		.cfi_offset 14, -4
 1523 0002 82B0     		sub	sp, sp, #8
 1524              	.LCFI60:
 1525              		.cfi_def_cfa_offset 16
 1526 0004 00AF     		add	r7, sp, #0
 1527              	.LCFI61:
 1528              		.cfi_def_cfa_register 7
 605:/opt/XMClib/XMC_Peripheral_Library_v2.1.16/XMCLib/src/xmc_usbd.c ****   gotgint_data_t data;
 606:/opt/XMClib/XMC_Peripheral_Library_v2.1.16/XMCLib/src/xmc_usbd.c ****   data.d32 = xmc_device.global_register->gotgint;
 1529              		.loc 1 606 0
 1530 0006 0F4B     		ldr	r3, .L82
 1531 0008 D3F8A031 		ldr	r3, [r3, #416]
 1532 000c 5B68     		ldr	r3, [r3, #4]
 1533 000e 7B60     		str	r3, [r7, #4]
 607:/opt/XMClib/XMC_Peripheral_Library_v2.1.16/XMCLib/src/xmc_usbd.c ****   if (data.b.sesenddet)
 1534              		.loc 1 607 0
 1535 0010 3B79     		ldrb	r3, [r7, #4]	@ zero_extendqisi2
 1536 0012 03F00403 		and	r3, r3, #4
 1537 0016 DBB2     		uxtb	r3, r3
 1538 0018 002B     		cmp	r3, #0
 1539 001a 0BD0     		beq	.L81
 608:/opt/XMClib/XMC_Peripheral_Library_v2.1.16/XMCLib/src/xmc_usbd.c ****   {
 609:/opt/XMClib/XMC_Peripheral_Library_v2.1.16/XMCLib/src/xmc_usbd.c **** 		xmc_device.IsPowered = 0U;
 1540              		.loc 1 609 0
 1541 001c 094A     		ldr	r2, .L82
 1542 001e 92F8FE31 		ldrb	r3, [r2, #510]
 1543 0022 6FF38203 		bfc	r3, #2, #1
 1544 0026 82F8FE31 		strb	r3, [r2, #510]
 610:/opt/XMClib/XMC_Peripheral_Library_v2.1.16/XMCLib/src/xmc_usbd.c **** 		xmc_device.DeviceEvent_cb(XMC_USBD_EVENT_POWER_OFF);
 1545              		.loc 1 610 0
 1546 002a 064B     		ldr	r3, .L82
 1547 002c D3F80032 		ldr	r3, [r3, #512]
 1548 0030 0120     		movs	r0, #1
 1549 0032 9847     		blx	r3
 1550              	.LVL1:
 1551              	.L81:
 611:/opt/XMClib/XMC_Peripheral_Library_v2.1.16/XMCLib/src/xmc_usbd.c ****   }
 612:/opt/XMClib/XMC_Peripheral_Library_v2.1.16/XMCLib/src/xmc_usbd.c ****   XMC_USBD_lClearEventOTG(data.d32);
 1552              		.loc 1 612 0
 1553 0034 7B68     		ldr	r3, [r7, #4]
 1554 0036 1846     		mov	r0, r3
 1555 0038 FFF7FEFF 		bl	XMC_USBD_lClearEventOTG
 613:/opt/XMClib/XMC_Peripheral_Library_v2.1.16/XMCLib/src/xmc_usbd.c **** 
 614:/opt/XMClib/XMC_Peripheral_Library_v2.1.16/XMCLib/src/xmc_usbd.c **** }
 1556              		.loc 1 614 0
 1557 003c 00BF     		nop
 1558 003e 0837     		adds	r7, r7, #8
 1559              	.LCFI62:
 1560              		.cfi_def_cfa_offset 8
 1561 0040 BD46     		mov	sp, r7
 1562              	.LCFI63:
 1563              		.cfi_def_cfa_register 13
 1564              		@ sp needed
 1565 0042 80BD     		pop	{r7, pc}
 1566              	.L83:
 1567              		.align	2
 1568              	.L82:
 1569 0044 00000000 		.word	xmc_device
 1570              		.cfi_endproc
 1571              	.LFE172:
 1573              		.section	.text.XMC_USBD_lHandleEnumDone,"ax",%progbits
 1574              		.align	1
 1575              		.syntax unified
 1576              		.thumb
 1577              		.thumb_func
 1578              		.fpu fpv4-sp-d16
 1580              	XMC_USBD_lHandleEnumDone:
 1581              	.LFB173:
 615:/opt/XMClib/XMC_Peripheral_Library_v2.1.16/XMCLib/src/xmc_usbd.c **** 
 616:/opt/XMClib/XMC_Peripheral_Library_v2.1.16/XMCLib/src/xmc_usbd.c **** /**
 617:/opt/XMClib/XMC_Peripheral_Library_v2.1.16/XMCLib/src/xmc_usbd.c ****  * @brief Interrupt handler for device enumeration done.
 618:/opt/XMClib/XMC_Peripheral_Library_v2.1.16/XMCLib/src/xmc_usbd.c ****  *
 619:/opt/XMClib/XMC_Peripheral_Library_v2.1.16/XMCLib/src/xmc_usbd.c ****  * Handles the enumeration done from dwc_otg, when the host has enumerated the device.
 620:/opt/XMClib/XMC_Peripheral_Library_v2.1.16/XMCLib/src/xmc_usbd.c ****  */
 621:/opt/XMClib/XMC_Peripheral_Library_v2.1.16/XMCLib/src/xmc_usbd.c **** static void XMC_USBD_lHandleEnumDone(void) 
 622:/opt/XMClib/XMC_Peripheral_Library_v2.1.16/XMCLib/src/xmc_usbd.c **** {
 1582              		.loc 1 622 0
 1583              		.cfi_startproc
 1584              		@ args = 0, pretend = 0, frame = 8
 1585              		@ frame_needed = 1, uses_anonymous_args = 0
 1586 0000 80B5     		push	{r7, lr}
 1587              	.LCFI64:
 1588              		.cfi_def_cfa_offset 8
 1589              		.cfi_offset 7, -8
 1590              		.cfi_offset 14, -4
 1591 0002 82B0     		sub	sp, sp, #8
 1592              	.LCFI65:
 1593              		.cfi_def_cfa_offset 16
 1594 0004 00AF     		add	r7, sp, #0
 1595              	.LCFI66:
 1596              		.cfi_def_cfa_register 7
 623:/opt/XMClib/XMC_Peripheral_Library_v2.1.16/XMCLib/src/xmc_usbd.c ****   /* Normaly we need to check dctl
 624:/opt/XMClib/XMC_Peripheral_Library_v2.1.16/XMCLib/src/xmc_usbd.c ****    * We are always fullspeed, so max it up. */
 625:/opt/XMClib/XMC_Peripheral_Library_v2.1.16/XMCLib/src/xmc_usbd.c ****   depctl_data_t epctl;
 626:/opt/XMClib/XMC_Peripheral_Library_v2.1.16/XMCLib/src/xmc_usbd.c ****   gusbcfg_data_t gusbcfg;
 627:/opt/XMClib/XMC_Peripheral_Library_v2.1.16/XMCLib/src/xmc_usbd.c **** 	
 628:/opt/XMClib/XMC_Peripheral_Library_v2.1.16/XMCLib/src/xmc_usbd.c ****   epctl.d32=xmc_device.endpoint_in_register[0U]->diepctl;
 1597              		.loc 1 628 0
 1598 0006 1B4B     		ldr	r3, .L85
 1599 0008 D3F8A831 		ldr	r3, [r3, #424]
 1600 000c 1B68     		ldr	r3, [r3]
 1601 000e 7B60     		str	r3, [r7, #4]
 629:/opt/XMClib/XMC_Peripheral_Library_v2.1.16/XMCLib/src/xmc_usbd.c ****   epctl.b.mps = 0x00U; /* 64 Byte, this is also automatically set for out ep */
 1602              		.loc 1 629 0
 1603 0010 BB88     		ldrh	r3, [r7, #4]	@ movhi
 1604 0012 6FF30A03 		bfc	r3, #0, #11
 1605 0016 BB80     		strh	r3, [r7, #4]	@ movhi
 630:/opt/XMClib/XMC_Peripheral_Library_v2.1.16/XMCLib/src/xmc_usbd.c ****   xmc_device.endpoint_in_register[0U]->diepctl = epctl.d32;
 1606              		.loc 1 630 0
 1607 0018 164B     		ldr	r3, .L85
 1608 001a D3F8A831 		ldr	r3, [r3, #424]
 1609 001e 7A68     		ldr	r2, [r7, #4]
 1610 0020 1A60     		str	r2, [r3]
 631:/opt/XMClib/XMC_Peripheral_Library_v2.1.16/XMCLib/src/xmc_usbd.c **** 
 632:/opt/XMClib/XMC_Peripheral_Library_v2.1.16/XMCLib/src/xmc_usbd.c ****   /* update device connected flag */
 633:/opt/XMClib/XMC_Peripheral_Library_v2.1.16/XMCLib/src/xmc_usbd.c ****   xmc_device.IsConnected = 1U;
 1611              		.loc 1 633 0
 1612 0022 144A     		ldr	r2, .L85
 1613 0024 92F8FE31 		ldrb	r3, [r2, #510]
 1614 0028 43F00103 		orr	r3, r3, #1
 1615 002c 82F8FE31 		strb	r3, [r2, #510]
 634:/opt/XMClib/XMC_Peripheral_Library_v2.1.16/XMCLib/src/xmc_usbd.c ****   xmc_device.IsPowered = 1U;
 1616              		.loc 1 634 0
 1617 0030 104A     		ldr	r2, .L85
 1618 0032 92F8FE31 		ldrb	r3, [r2, #510]
 1619 0036 43F00403 		orr	r3, r3, #4
 1620 003a 82F8FE31 		strb	r3, [r2, #510]
 635:/opt/XMClib/XMC_Peripheral_Library_v2.1.16/XMCLib/src/xmc_usbd.c **** 
 636:/opt/XMClib/XMC_Peripheral_Library_v2.1.16/XMCLib/src/xmc_usbd.c ****   xmc_device.DeviceEvent_cb(XMC_USBD_EVENT_CONNECT);
 1621              		.loc 1 636 0
 1622 003e 0D4B     		ldr	r3, .L85
 1623 0040 D3F80032 		ldr	r3, [r3, #512]
 1624 0044 0220     		movs	r0, #2
 1625 0046 9847     		blx	r3
 1626              	.LVL2:
 637:/opt/XMClib/XMC_Peripheral_Library_v2.1.16/XMCLib/src/xmc_usbd.c **** 
 638:/opt/XMClib/XMC_Peripheral_Library_v2.1.16/XMCLib/src/xmc_usbd.c ****   /* Set Trim */  
 639:/opt/XMClib/XMC_Peripheral_Library_v2.1.16/XMCLib/src/xmc_usbd.c ****   gusbcfg.d32 = xmc_device.global_register->gusbcfg;
 1627              		.loc 1 639 0
 1628 0048 0A4B     		ldr	r3, .L85
 1629 004a D3F8A031 		ldr	r3, [r3, #416]
 1630 004e DB68     		ldr	r3, [r3, #12]
 1631 0050 3B60     		str	r3, [r7]
 640:/opt/XMClib/XMC_Peripheral_Library_v2.1.16/XMCLib/src/xmc_usbd.c ****   gusbcfg.b.usbtrdtim = 9U; /* default value for LS/FS */
 1632              		.loc 1 640 0
 1633 0052 7B78     		ldrb	r3, [r7, #1]
 1634 0054 0922     		movs	r2, #9
 1635 0056 62F38503 		bfi	r3, r2, #2, #4
 1636 005a 7B70     		strb	r3, [r7, #1]
 641:/opt/XMClib/XMC_Peripheral_Library_v2.1.16/XMCLib/src/xmc_usbd.c ****   xmc_device.global_register->gusbcfg = gusbcfg.d32;
 1637              		.loc 1 641 0
 1638 005c 054B     		ldr	r3, .L85
 1639 005e D3F8A031 		ldr	r3, [r3, #416]
 1640 0062 3A68     		ldr	r2, [r7]
 1641 0064 DA60     		str	r2, [r3, #12]
 642:/opt/XMClib/XMC_Peripheral_Library_v2.1.16/XMCLib/src/xmc_usbd.c **** 
 643:/opt/XMClib/XMC_Peripheral_Library_v2.1.16/XMCLib/src/xmc_usbd.c ****   /* clear interrupt */
 644:/opt/XMClib/XMC_Peripheral_Library_v2.1.16/XMCLib/src/xmc_usbd.c ****   XMC_USBD_ClearEvent(XMC_USBD_EVENT_ENUMDONE);
 1642              		.loc 1 644 0
 1643 0066 0B20     		movs	r0, #11
 1644 0068 FFF7FEFF 		bl	XMC_USBD_ClearEvent
 645:/opt/XMClib/XMC_Peripheral_Library_v2.1.16/XMCLib/src/xmc_usbd.c **** }
 1645              		.loc 1 645 0
 1646 006c 00BF     		nop
 1647 006e 0837     		adds	r7, r7, #8
 1648              	.LCFI67:
 1649              		.cfi_def_cfa_offset 8
 1650 0070 BD46     		mov	sp, r7
 1651              	.LCFI68:
 1652              		.cfi_def_cfa_register 13
 1653              		@ sp needed
 1654 0072 80BD     		pop	{r7, pc}
 1655              	.L86:
 1656              		.align	2
 1657              	.L85:
 1658 0074 00000000 		.word	xmc_device
 1659              		.cfi_endproc
 1660              	.LFE173:
 1662              		.section	.text.XMC_USBD_lHandleOEPInt,"ax",%progbits
 1663              		.align	1
 1664              		.syntax unified
 1665              		.thumb
 1666              		.thumb_func
 1667              		.fpu fpv4-sp-d16
 1669              	XMC_USBD_lHandleOEPInt:
 1670              	.LFB174:
 646:/opt/XMClib/XMC_Peripheral_Library_v2.1.16/XMCLib/src/xmc_usbd.c **** 
 647:/opt/XMClib/XMC_Peripheral_Library_v2.1.16/XMCLib/src/xmc_usbd.c **** 
 648:/opt/XMClib/XMC_Peripheral_Library_v2.1.16/XMCLib/src/xmc_usbd.c **** /**
 649:/opt/XMClib/XMC_Peripheral_Library_v2.1.16/XMCLib/src/xmc_usbd.c ****  * @brief Handles all interrupts for all out endpoints
 650:/opt/XMClib/XMC_Peripheral_Library_v2.1.16/XMCLib/src/xmc_usbd.c ****  *
 651:/opt/XMClib/XMC_Peripheral_Library_v2.1.16/XMCLib/src/xmc_usbd.c ****  * The interrupt handler first checks, which endpoint has caused the interrupt and then
 652:/opt/XMClib/XMC_Peripheral_Library_v2.1.16/XMCLib/src/xmc_usbd.c ****  * determines, which interrupt should be handled.
 653:/opt/XMClib/XMC_Peripheral_Library_v2.1.16/XMCLib/src/xmc_usbd.c ****  */
 654:/opt/XMClib/XMC_Peripheral_Library_v2.1.16/XMCLib/src/xmc_usbd.c **** static void XMC_USBD_lHandleOEPInt(const XMC_USBD_t *const obj) 
 655:/opt/XMClib/XMC_Peripheral_Library_v2.1.16/XMCLib/src/xmc_usbd.c **** {
 1671              		.loc 1 655 0
 1672              		.cfi_startproc
 1673              		@ args = 0, pretend = 0, frame = 48
 1674              		@ frame_needed = 1, uses_anonymous_args = 0
 1675 0000 80B5     		push	{r7, lr}
 1676              	.LCFI69:
 1677              		.cfi_def_cfa_offset 8
 1678              		.cfi_offset 7, -8
 1679              		.cfi_offset 14, -4
 1680 0002 8CB0     		sub	sp, sp, #48
 1681              	.LCFI70:
 1682              		.cfi_def_cfa_offset 56
 1683 0004 00AF     		add	r7, sp, #0
 1684              	.LCFI71:
 1685              		.cfi_def_cfa_register 7
 1686 0006 7860     		str	r0, [r7, #4]
 656:/opt/XMClib/XMC_Peripheral_Library_v2.1.16/XMCLib/src/xmc_usbd.c ****   daint_data_t daint;
 657:/opt/XMClib/XMC_Peripheral_Library_v2.1.16/XMCLib/src/xmc_usbd.c ****   daint_data_t daintmsk;
 658:/opt/XMClib/XMC_Peripheral_Library_v2.1.16/XMCLib/src/xmc_usbd.c ****   doepmsk_data_t doepmsk;
 659:/opt/XMClib/XMC_Peripheral_Library_v2.1.16/XMCLib/src/xmc_usbd.c ****   doepint_data_t doepint;
 660:/opt/XMClib/XMC_Peripheral_Library_v2.1.16/XMCLib/src/xmc_usbd.c ****   deptsiz_data_t doeptsiz;
 661:/opt/XMClib/XMC_Peripheral_Library_v2.1.16/XMCLib/src/xmc_usbd.c ****   XMC_USBD_EP_t *ep;
 662:/opt/XMClib/XMC_Peripheral_Library_v2.1.16/XMCLib/src/xmc_usbd.c ****   uint16_t temp;
 663:/opt/XMClib/XMC_Peripheral_Library_v2.1.16/XMCLib/src/xmc_usbd.c ****   uint16_t temp1;
 664:/opt/XMClib/XMC_Peripheral_Library_v2.1.16/XMCLib/src/xmc_usbd.c ****   uint16_t mask;
 665:/opt/XMClib/XMC_Peripheral_Library_v2.1.16/XMCLib/src/xmc_usbd.c ****   uint8_t ep_num;
 666:/opt/XMClib/XMC_Peripheral_Library_v2.1.16/XMCLib/src/xmc_usbd.c **** 	
 667:/opt/XMClib/XMC_Peripheral_Library_v2.1.16/XMCLib/src/xmc_usbd.c ****   daint.d32 = xmc_device.device_register->daint;
 1687              		.loc 1 667 0
 1688 0008 6B4B     		ldr	r3, .L98
 1689 000a D3F8A431 		ldr	r3, [r3, #420]
 1690 000e 9B69     		ldr	r3, [r3, #24]
 1691 0010 FB61     		str	r3, [r7, #28]
 668:/opt/XMClib/XMC_Peripheral_Library_v2.1.16/XMCLib/src/xmc_usbd.c ****   
 669:/opt/XMClib/XMC_Peripheral_Library_v2.1.16/XMCLib/src/xmc_usbd.c ****   daintmsk.d32 = xmc_device.device_register->daintmsk;
 1692              		.loc 1 669 0
 1693 0012 694B     		ldr	r3, .L98
 1694 0014 D3F8A431 		ldr	r3, [r3, #420]
 1695 0018 DB69     		ldr	r3, [r3, #28]
 1696 001a BB61     		str	r3, [r7, #24]
 670:/opt/XMClib/XMC_Peripheral_Library_v2.1.16/XMCLib/src/xmc_usbd.c ****   
 671:/opt/XMClib/XMC_Peripheral_Library_v2.1.16/XMCLib/src/xmc_usbd.c ****   doepmsk.d32 = xmc_device.device_register->doepmsk;  
 1697              		.loc 1 671 0
 1698 001c 664B     		ldr	r3, .L98
 1699 001e D3F8A431 		ldr	r3, [r3, #420]
 1700 0022 5B69     		ldr	r3, [r3, #20]
 1701 0024 7B61     		str	r3, [r7, #20]
 672:/opt/XMClib/XMC_Peripheral_Library_v2.1.16/XMCLib/src/xmc_usbd.c ****   
 673:/opt/XMClib/XMC_Peripheral_Library_v2.1.16/XMCLib/src/xmc_usbd.c ****   mask = daint.ep.out & daintmsk.ep.out;
 1702              		.loc 1 673 0
 1703 0026 FA8B     		ldrh	r2, [r7, #30]
 1704 0028 7B8B     		ldrh	r3, [r7, #26]
 1705 002a 1340     		ands	r3, r3, r2
 1706 002c BB85     		strh	r3, [r7, #44]	@ movhi
 674:/opt/XMClib/XMC_Peripheral_Library_v2.1.16/XMCLib/src/xmc_usbd.c ****   ep_num = 0U;
 1707              		.loc 1 674 0
 1708 002e 0023     		movs	r3, #0
 1709 0030 87F82F30 		strb	r3, [r7, #47]
 675:/opt/XMClib/XMC_Peripheral_Library_v2.1.16/XMCLib/src/xmc_usbd.c ****   doeptsiz.d32 = 0U;
 1710              		.loc 1 675 0
 1711 0034 0023     		movs	r3, #0
 1712 0036 FB60     		str	r3, [r7, #12]
 676:/opt/XMClib/XMC_Peripheral_Library_v2.1.16/XMCLib/src/xmc_usbd.c ****  
 677:/opt/XMClib/XMC_Peripheral_Library_v2.1.16/XMCLib/src/xmc_usbd.c ****   while ((uint16_t)mask >> ep_num)
 1713              		.loc 1 677 0
 1714 0038 AEE0     		b	.L88
 1715              	.L97:
 678:/opt/XMClib/XMC_Peripheral_Library_v2.1.16/XMCLib/src/xmc_usbd.c ****   {
 679:/opt/XMClib/XMC_Peripheral_Library_v2.1.16/XMCLib/src/xmc_usbd.c ****     temp1 = (mask >> (uint16_t)ep_num);
 1716              		.loc 1 679 0
 1717 003a BA8D     		ldrh	r2, [r7, #44]
 1718 003c 97F82F30 		ldrb	r3, [r7, #47]	@ zero_extendqisi2
 1719 0040 42FA03F3 		asr	r3, r2, r3
 1720 0044 7B85     		strh	r3, [r7, #42]	@ movhi
 680:/opt/XMClib/XMC_Peripheral_Library_v2.1.16/XMCLib/src/xmc_usbd.c ****     temp = temp1 & 0x1U;
 1721              		.loc 1 680 0
 1722 0046 7B8D     		ldrh	r3, [r7, #42]	@ movhi
 1723 0048 03F00103 		and	r3, r3, #1
 1724 004c 3B85     		strh	r3, [r7, #40]	@ movhi
 681:/opt/XMClib/XMC_Peripheral_Library_v2.1.16/XMCLib/src/xmc_usbd.c ****     if (temp)
 1725              		.loc 1 681 0
 1726 004e 3B8D     		ldrh	r3, [r7, #40]
 1727 0050 002B     		cmp	r3, #0
 1728 0052 00F09C80 		beq	.L89
 682:/opt/XMClib/XMC_Peripheral_Library_v2.1.16/XMCLib/src/xmc_usbd.c ****     {
 683:/opt/XMClib/XMC_Peripheral_Library_v2.1.16/XMCLib/src/xmc_usbd.c ****       /* load register data for endpoint */
 684:/opt/XMClib/XMC_Peripheral_Library_v2.1.16/XMCLib/src/xmc_usbd.c ****       ep = &xmc_device.ep[ep_num];
 1729              		.loc 1 684 0
 1730 0056 97F82F30 		ldrb	r3, [r7, #47]	@ zero_extendqisi2
 1731 005a 3422     		movs	r2, #52
 1732 005c 02FB03F3 		mul	r3, r2, r3
 1733 0060 554A     		ldr	r2, .L98
 1734 0062 1344     		add	r3, r3, r2
 1735 0064 7B62     		str	r3, [r7, #36]
 685:/opt/XMClib/XMC_Peripheral_Library_v2.1.16/XMCLib/src/xmc_usbd.c ****       doepint.d32 = xmc_device.endpoint_out_register[ep_num]->doepint & doepmsk.d32;
 1736              		.loc 1 685 0
 1737 0066 97F82F30 		ldrb	r3, [r7, #47]	@ zero_extendqisi2
 1738 006a 534A     		ldr	r2, .L98
 1739 006c 7033     		adds	r3, r3, #112
 1740 006e 9B00     		lsls	r3, r3, #2
 1741 0070 1344     		add	r3, r3, r2
 1742 0072 5B68     		ldr	r3, [r3, #4]
 1743 0074 9A68     		ldr	r2, [r3, #8]
 1744 0076 7B69     		ldr	r3, [r7, #20]
 1745 0078 1340     		ands	r3, r3, r2
 1746 007a 3B61     		str	r3, [r7, #16]
 686:/opt/XMClib/XMC_Peripheral_Library_v2.1.16/XMCLib/src/xmc_usbd.c ****       if(obj->usbd_transfer_mode == XMC_USBD_USE_DMA)
 1747              		.loc 1 686 0
 1748 007c 7B68     		ldr	r3, [r7, #4]
 1749 007e 5B7B     		ldrb	r3, [r3, #13]	@ zero_extendqisi2
 1750 0080 002B     		cmp	r3, #0
 1751 0082 08D1     		bne	.L90
 687:/opt/XMClib/XMC_Peripheral_Library_v2.1.16/XMCLib/src/xmc_usbd.c ****       {
 688:/opt/XMClib/XMC_Peripheral_Library_v2.1.16/XMCLib/src/xmc_usbd.c ****         doeptsiz.d32 = xmc_device.endpoint_out_register[ep_num]->doeptsiz;
 1752              		.loc 1 688 0
 1753 0084 97F82F30 		ldrb	r3, [r7, #47]	@ zero_extendqisi2
 1754 0088 4B4A     		ldr	r2, .L98
 1755 008a 7033     		adds	r3, r3, #112
 1756 008c 9B00     		lsls	r3, r3, #2
 1757 008e 1344     		add	r3, r3, r2
 1758 0090 5B68     		ldr	r3, [r3, #4]
 1759 0092 1B69     		ldr	r3, [r3, #16]
 1760 0094 FB60     		str	r3, [r7, #12]
 1761              	.L90:
 689:/opt/XMClib/XMC_Peripheral_Library_v2.1.16/XMCLib/src/xmc_usbd.c ****       }
 690:/opt/XMClib/XMC_Peripheral_Library_v2.1.16/XMCLib/src/xmc_usbd.c **** 	  /* Setup Phase Complete */
 691:/opt/XMClib/XMC_Peripheral_Library_v2.1.16/XMCLib/src/xmc_usbd.c ****       if (doepint.b.setup)
 1762              		.loc 1 691 0
 1763 0096 3B7C     		ldrb	r3, [r7, #16]	@ zero_extendqisi2
 1764 0098 03F00803 		and	r3, r3, #8
 1765 009c DBB2     		uxtb	r3, r3
 1766 009e 002B     		cmp	r3, #0
 1767 00a0 33D0     		beq	.L91
 692:/opt/XMClib/XMC_Peripheral_Library_v2.1.16/XMCLib/src/xmc_usbd.c ****       {
 693:/opt/XMClib/XMC_Peripheral_Library_v2.1.16/XMCLib/src/xmc_usbd.c ****         /* ep0 not stalled any more */
 694:/opt/XMClib/XMC_Peripheral_Library_v2.1.16/XMCLib/src/xmc_usbd.c ****         ep->isStalled = 0U;
 1768              		.loc 1 694 0
 1769 00a2 7A6A     		ldr	r2, [r7, #36]
 1770 00a4 1379     		ldrb	r3, [r2, #4]
 1771 00a6 6FF34513 		bfc	r3, #5, #1
 1772 00aa 1371     		strb	r3, [r2, #4]
 695:/opt/XMClib/XMC_Peripheral_Library_v2.1.16/XMCLib/src/xmc_usbd.c ****         if(obj->usbd_transfer_mode == XMC_USBD_USE_DMA)
 1773              		.loc 1 695 0
 1774 00ac 7B68     		ldr	r3, [r7, #4]
 1775 00ae 5B7B     		ldrb	r3, [r3, #13]	@ zero_extendqisi2
 1776 00b0 002B     		cmp	r3, #0
 1777 00b2 0ED1     		bne	.L92
 696:/opt/XMClib/XMC_Peripheral_Library_v2.1.16/XMCLib/src/xmc_usbd.c ****         {
 697:/opt/XMClib/XMC_Peripheral_Library_v2.1.16/XMCLib/src/xmc_usbd.c ****           /* calculate size for setup packet */
 698:/opt/XMClib/XMC_Peripheral_Library_v2.1.16/XMCLib/src/xmc_usbd.c **** 		  ep->outBytesAvailable = (uint32_t)(((uint32_t)XMC_USBD_SETUP_COUNT -
 699:/opt/XMClib/XMC_Peripheral_Library_v2.1.16/XMCLib/src/xmc_usbd.c **** 		  (uint32_t)((deptsiz0_data_t*)&doeptsiz)->b.supcnt)*(uint32_t)XMC_USBD_SETUP_SIZE);
 1778              		.loc 1 699 0
 1779 00b4 07F10C03 		add	r3, r7, #12
 1780 00b8 DB78     		ldrb	r3, [r3, #3]
 1781 00ba C3F34113 		ubfx	r3, r3, #5, #2
 1782 00be DBB2     		uxtb	r3, r3
 1783 00c0 1A46     		mov	r2, r3
 698:/opt/XMClib/XMC_Peripheral_Library_v2.1.16/XMCLib/src/xmc_usbd.c **** 		  (uint32_t)((deptsiz0_data_t*)&doeptsiz)->b.supcnt)*(uint32_t)XMC_USBD_SETUP_SIZE);
 1784              		.loc 1 698 0
 1785 00c2 1346     		mov	r3, r2
 1786 00c4 5B07     		lsls	r3, r3, #29
 1787 00c6 9B1A     		subs	r3, r3, r2
 1788 00c8 DB00     		lsls	r3, r3, #3
 1789 00ca 03F11802 		add	r2, r3, #24
 1790 00ce 7B6A     		ldr	r3, [r7, #36]
 1791 00d0 1A61     		str	r2, [r3, #16]
 1792              	.L92:
 700:/opt/XMClib/XMC_Peripheral_Library_v2.1.16/XMCLib/src/xmc_usbd.c ****         }
 701:/opt/XMClib/XMC_Peripheral_Library_v2.1.16/XMCLib/src/xmc_usbd.c **** 		if(obj->usbd_transfer_mode == XMC_USBD_USE_FIFO)
 1793              		.loc 1 701 0
 1794 00d2 7B68     		ldr	r3, [r7, #4]
 1795 00d4 5B7B     		ldrb	r3, [r3, #13]	@ zero_extendqisi2
 1796 00d6 012B     		cmp	r3, #1
 1797 00d8 06D1     		bne	.L93
 702:/opt/XMClib/XMC_Peripheral_Library_v2.1.16/XMCLib/src/xmc_usbd.c **** 		{
 703:/opt/XMClib/XMC_Peripheral_Library_v2.1.16/XMCLib/src/xmc_usbd.c **** 			ep->outBytesAvailable += ep->xferCount;
 1798              		.loc 1 703 0
 1799 00da 7B6A     		ldr	r3, [r7, #36]
 1800 00dc 1A69     		ldr	r2, [r3, #16]
 1801 00de 7B6A     		ldr	r3, [r7, #36]
 1802 00e0 DB6A     		ldr	r3, [r3, #44]
 1803 00e2 1A44     		add	r2, r2, r3
 1804 00e4 7B6A     		ldr	r3, [r7, #36]
 1805 00e6 1A61     		str	r2, [r3, #16]
 1806              	.L93:
 704:/opt/XMClib/XMC_Peripheral_Library_v2.1.16/XMCLib/src/xmc_usbd.c **** 		}
 705:/opt/XMClib/XMC_Peripheral_Library_v2.1.16/XMCLib/src/xmc_usbd.c **** 		ep->outInUse = 0U;
 1807              		.loc 1 705 0
 1808 00e8 7A6A     		ldr	r2, [r7, #36]
 1809 00ea 5368     		ldr	r3, [r2, #4]
 1810 00ec 6FF30413 		bfc	r3, #4, #1
 1811 00f0 5360     		str	r3, [r2, #4]
 706:/opt/XMClib/XMC_Peripheral_Library_v2.1.16/XMCLib/src/xmc_usbd.c **** 		xmc_device.EndpointEvent_cb(0U,XMC_USBD_EP_EVENT_SETUP); /* signal endpoint event */
 1812              		.loc 1 706 0
 1813 00f2 314B     		ldr	r3, .L98
 1814 00f4 D3F80432 		ldr	r3, [r3, #516]
 1815 00f8 0021     		movs	r1, #0
 1816 00fa 0020     		movs	r0, #0
 1817 00fc 9847     		blx	r3
 1818              	.LVL3:
 707:/opt/XMClib/XMC_Peripheral_Library_v2.1.16/XMCLib/src/xmc_usbd.c **** 				/* clear the interrupt */
 708:/opt/XMClib/XMC_Peripheral_Library_v2.1.16/XMCLib/src/xmc_usbd.c **** 		XMC_USBD_ClearEventOUTEP((uint32_t)XMC_USBD_EVENT_OUT_EP_SETUP,ep_num);
 1819              		.loc 1 708 0
 1820 00fe 97F82F30 		ldrb	r3, [r7, #47]	@ zero_extendqisi2
 1821 0102 1946     		mov	r1, r3
 1822 0104 0820     		movs	r0, #8
 1823 0106 FFF7FEFF 		bl	XMC_USBD_ClearEventOUTEP
 1824              	.L91:
 709:/opt/XMClib/XMC_Peripheral_Library_v2.1.16/XMCLib/src/xmc_usbd.c ****       }
 710:/opt/XMClib/XMC_Peripheral_Library_v2.1.16/XMCLib/src/xmc_usbd.c ****       if (doepint.b.xfercompl)
 1825              		.loc 1 710 0
 1826 010a 3B7C     		ldrb	r3, [r7, #16]	@ zero_extendqisi2
 1827 010c 03F00103 		and	r3, r3, #1
 1828 0110 DBB2     		uxtb	r3, r3
 1829 0112 002B     		cmp	r3, #0
 1830 0114 34D0     		beq	.L94
 711:/opt/XMClib/XMC_Peripheral_Library_v2.1.16/XMCLib/src/xmc_usbd.c ****       {
 712:/opt/XMClib/XMC_Peripheral_Library_v2.1.16/XMCLib/src/xmc_usbd.c ****         if(obj->usbd_transfer_mode == XMC_USBD_USE_DMA)
 1831              		.loc 1 712 0
 1832 0116 7B68     		ldr	r3, [r7, #4]
 1833 0118 5B7B     		ldrb	r3, [r3, #13]	@ zero_extendqisi2
 1834 011a 002B     		cmp	r3, #0
 1835 011c 15D1     		bne	.L95
 1836              	.LBB3:
 713:/opt/XMClib/XMC_Peripheral_Library_v2.1.16/XMCLib/src/xmc_usbd.c ****         {
 714:/opt/XMClib/XMC_Peripheral_Library_v2.1.16/XMCLib/src/xmc_usbd.c ****           uint32_t bytes = (ep->xferLength - ep->xferCount) - doeptsiz.b.xfersize;
 1837              		.loc 1 714 0
 1838 011e 7B6A     		ldr	r3, [r7, #36]
 1839 0120 9A6A     		ldr	r2, [r3, #40]
 1840 0122 7B6A     		ldr	r3, [r7, #36]
 1841 0124 DB6A     		ldr	r3, [r3, #44]
 1842 0126 D31A     		subs	r3, r2, r3
 1843 0128 FA68     		ldr	r2, [r7, #12]
 1844 012a C2F31202 		ubfx	r2, r2, #0, #19
 1845 012e 9B1A     		subs	r3, r3, r2
 1846 0130 3B62     		str	r3, [r7, #32]
 715:/opt/XMClib/XMC_Peripheral_Library_v2.1.16/XMCLib/src/xmc_usbd.c ****           ep->xferCount += bytes;
 1847              		.loc 1 715 0
 1848 0132 7B6A     		ldr	r3, [r7, #36]
 1849 0134 DA6A     		ldr	r2, [r3, #44]
 1850 0136 3B6A     		ldr	r3, [r7, #32]
 1851 0138 1A44     		add	r2, r2, r3
 1852 013a 7B6A     		ldr	r3, [r7, #36]
 1853 013c DA62     		str	r2, [r3, #44]
 716:/opt/XMClib/XMC_Peripheral_Library_v2.1.16/XMCLib/src/xmc_usbd.c ****           ep->xferBuffer += bytes;
 1854              		.loc 1 716 0
 1855 013e 7B6A     		ldr	r3, [r7, #36]
 1856 0140 5A6A     		ldr	r2, [r3, #36]
 1857 0142 3B6A     		ldr	r3, [r7, #32]
 1858 0144 1A44     		add	r2, r2, r3
 1859 0146 7B6A     		ldr	r3, [r7, #36]
 1860 0148 5A62     		str	r2, [r3, #36]
 1861              	.L95:
 1862              	.LBE3:
 717:/opt/XMClib/XMC_Peripheral_Library_v2.1.16/XMCLib/src/xmc_usbd.c **** 				}
 718:/opt/XMClib/XMC_Peripheral_Library_v2.1.16/XMCLib/src/xmc_usbd.c ****         if (ep->xferTotal == ep->xferLength)
 1863              		.loc 1 718 0
 1864 014a 7B6A     		ldr	r3, [r7, #36]
 1865 014c 1A6B     		ldr	r2, [r3, #48]
 1866 014e 7B6A     		ldr	r3, [r7, #36]
 1867 0150 9B6A     		ldr	r3, [r3, #40]
 1868 0152 9A42     		cmp	r2, r3
 1869 0154 11D1     		bne	.L96
 719:/opt/XMClib/XMC_Peripheral_Library_v2.1.16/XMCLib/src/xmc_usbd.c ****         {
 720:/opt/XMClib/XMC_Peripheral_Library_v2.1.16/XMCLib/src/xmc_usbd.c ****           ep->outBytesAvailable = ep->xferCount;
 1870              		.loc 1 720 0
 1871 0156 7B6A     		ldr	r3, [r7, #36]
 1872 0158 DA6A     		ldr	r2, [r3, #44]
 1873 015a 7B6A     		ldr	r3, [r7, #36]
 1874 015c 1A61     		str	r2, [r3, #16]
 721:/opt/XMClib/XMC_Peripheral_Library_v2.1.16/XMCLib/src/xmc_usbd.c ****           ep->outInUse = 0U;
 1875              		.loc 1 721 0
 1876 015e 7A6A     		ldr	r2, [r7, #36]
 1877 0160 5368     		ldr	r3, [r2, #4]
 1878 0162 6FF30413 		bfc	r3, #4, #1
 1879 0166 5360     		str	r3, [r2, #4]
 722:/opt/XMClib/XMC_Peripheral_Library_v2.1.16/XMCLib/src/xmc_usbd.c ****           xmc_device.EndpointEvent_cb(ep_num,XMC_USBD_EP_EVENT_OUT);
 1880              		.loc 1 722 0
 1881 0168 134B     		ldr	r3, .L98
 1882 016a D3F80432 		ldr	r3, [r3, #516]
 1883 016e 97F82F20 		ldrb	r2, [r7, #47]	@ zero_extendqisi2
 1884 0172 0121     		movs	r1, #1
 1885 0174 1046     		mov	r0, r2
 1886 0176 9847     		blx	r3
 1887              	.LVL4:
 1888 0178 02E0     		b	.L94
 1889              	.L96:
 723:/opt/XMClib/XMC_Peripheral_Library_v2.1.16/XMCLib/src/xmc_usbd.c ****         }
 724:/opt/XMClib/XMC_Peripheral_Library_v2.1.16/XMCLib/src/xmc_usbd.c ****         else
 725:/opt/XMClib/XMC_Peripheral_Library_v2.1.16/XMCLib/src/xmc_usbd.c ****         {
 726:/opt/XMClib/XMC_Peripheral_Library_v2.1.16/XMCLib/src/xmc_usbd.c ****           XMC_USBD_lStartReadXfer(ep);
 1890              		.loc 1 726 0
 1891 017a 786A     		ldr	r0, [r7, #36]
 1892 017c FFF7FEFF 		bl	XMC_USBD_lStartReadXfer
 1893              	.L94:
 727:/opt/XMClib/XMC_Peripheral_Library_v2.1.16/XMCLib/src/xmc_usbd.c ****         }
 728:/opt/XMClib/XMC_Peripheral_Library_v2.1.16/XMCLib/src/xmc_usbd.c **** 
 729:/opt/XMClib/XMC_Peripheral_Library_v2.1.16/XMCLib/src/xmc_usbd.c ****       }
 730:/opt/XMClib/XMC_Peripheral_Library_v2.1.16/XMCLib/src/xmc_usbd.c **** 
 731:/opt/XMClib/XMC_Peripheral_Library_v2.1.16/XMCLib/src/xmc_usbd.c ****       XMC_USBD_ClearEventOUTEP(doepint.d32,ep_num);
 1894              		.loc 1 731 0
 1895 0180 3B69     		ldr	r3, [r7, #16]
 1896 0182 97F82F20 		ldrb	r2, [r7, #47]	@ zero_extendqisi2
 1897 0186 1146     		mov	r1, r2
 1898 0188 1846     		mov	r0, r3
 1899 018a FFF7FEFF 		bl	XMC_USBD_ClearEventOUTEP
 1900              	.L89:
 732:/opt/XMClib/XMC_Peripheral_Library_v2.1.16/XMCLib/src/xmc_usbd.c ****     }
 733:/opt/XMClib/XMC_Peripheral_Library_v2.1.16/XMCLib/src/xmc_usbd.c ****     ep_num++;
 1901              		.loc 1 733 0
 1902 018e 97F82F30 		ldrb	r3, [r7, #47]	@ zero_extendqisi2
 1903 0192 0133     		adds	r3, r3, #1
 1904 0194 87F82F30 		strb	r3, [r7, #47]
 1905              	.L88:
 677:/opt/XMClib/XMC_Peripheral_Library_v2.1.16/XMCLib/src/xmc_usbd.c ****   {
 1906              		.loc 1 677 0
 1907 0198 BA8D     		ldrh	r2, [r7, #44]
 1908 019a 97F82F30 		ldrb	r3, [r7, #47]	@ zero_extendqisi2
 1909 019e 42FA03F3 		asr	r3, r2, r3
 1910 01a2 002B     		cmp	r3, #0
 1911 01a4 7FF449AF 		bne	.L97
 734:/opt/XMClib/XMC_Peripheral_Library_v2.1.16/XMCLib/src/xmc_usbd.c ****   }
 735:/opt/XMClib/XMC_Peripheral_Library_v2.1.16/XMCLib/src/xmc_usbd.c **** 
 736:/opt/XMClib/XMC_Peripheral_Library_v2.1.16/XMCLib/src/xmc_usbd.c ****   /* clear interrupt */
 737:/opt/XMClib/XMC_Peripheral_Library_v2.1.16/XMCLib/src/xmc_usbd.c ****   XMC_USBD_ClearEvent(XMC_USBD_EVENT_OUTEP);
 1912              		.loc 1 737 0
 1913 01a8 0D20     		movs	r0, #13
 1914 01aa FFF7FEFF 		bl	XMC_USBD_ClearEvent
 738:/opt/XMClib/XMC_Peripheral_Library_v2.1.16/XMCLib/src/xmc_usbd.c **** }
 1915              		.loc 1 738 0
 1916 01ae 00BF     		nop
 1917 01b0 3037     		adds	r7, r7, #48
 1918              	.LCFI72:
 1919              		.cfi_def_cfa_offset 8
 1920 01b2 BD46     		mov	sp, r7
 1921              	.LCFI73:
 1922              		.cfi_def_cfa_register 13
 1923              		@ sp needed
 1924 01b4 80BD     		pop	{r7, pc}
 1925              	.L99:
 1926 01b6 00BF     		.align	2
 1927              	.L98:
 1928 01b8 00000000 		.word	xmc_device
 1929              		.cfi_endproc
 1930              	.LFE174:
 1932              		.section	.text.XMC_USBD_lHandleIEPInt,"ax",%progbits
 1933              		.align	1
 1934              		.syntax unified
 1935              		.thumb
 1936              		.thumb_func
 1937              		.fpu fpv4-sp-d16
 1939              	XMC_USBD_lHandleIEPInt:
 1940              	.LFB175:
 739:/opt/XMClib/XMC_Peripheral_Library_v2.1.16/XMCLib/src/xmc_usbd.c **** 
 740:/opt/XMClib/XMC_Peripheral_Library_v2.1.16/XMCLib/src/xmc_usbd.c **** /**
 741:/opt/XMClib/XMC_Peripheral_Library_v2.1.16/XMCLib/src/xmc_usbd.c ****  * @brief Handles all interrupts for all in endpoints
 742:/opt/XMClib/XMC_Peripheral_Library_v2.1.16/XMCLib/src/xmc_usbd.c ****  *
 743:/opt/XMClib/XMC_Peripheral_Library_v2.1.16/XMCLib/src/xmc_usbd.c ****  * The interrupt handler first checks, which endpoint has caused the interrupt and then
 744:/opt/XMClib/XMC_Peripheral_Library_v2.1.16/XMCLib/src/xmc_usbd.c ****  * determines, which interrupt should be handled.
 745:/opt/XMClib/XMC_Peripheral_Library_v2.1.16/XMCLib/src/xmc_usbd.c ****  */
 746:/opt/XMClib/XMC_Peripheral_Library_v2.1.16/XMCLib/src/xmc_usbd.c **** static void XMC_USBD_lHandleIEPInt(const XMC_USBD_t *const obj) 
 747:/opt/XMClib/XMC_Peripheral_Library_v2.1.16/XMCLib/src/xmc_usbd.c **** {
 1941              		.loc 1 747 0
 1942              		.cfi_startproc
 1943              		@ args = 0, pretend = 0, frame = 48
 1944              		@ frame_needed = 1, uses_anonymous_args = 0
 1945 0000 80B5     		push	{r7, lr}
 1946              	.LCFI74:
 1947              		.cfi_def_cfa_offset 8
 1948              		.cfi_offset 7, -8
 1949              		.cfi_offset 14, -4
 1950 0002 8CB0     		sub	sp, sp, #48
 1951              	.LCFI75:
 1952              		.cfi_def_cfa_offset 56
 1953 0004 00AF     		add	r7, sp, #0
 1954              	.LCFI76:
 1955              		.cfi_def_cfa_register 7
 1956 0006 7860     		str	r0, [r7, #4]
 748:/opt/XMClib/XMC_Peripheral_Library_v2.1.16/XMCLib/src/xmc_usbd.c ****   XMC_USBD_EP_t *ep;
 749:/opt/XMClib/XMC_Peripheral_Library_v2.1.16/XMCLib/src/xmc_usbd.c ****   daint_data_t daint;
 750:/opt/XMClib/XMC_Peripheral_Library_v2.1.16/XMCLib/src/xmc_usbd.c ****   diepmsk_data_t diepmsk;
 751:/opt/XMClib/XMC_Peripheral_Library_v2.1.16/XMCLib/src/xmc_usbd.c ****   diepint_data_t diepint;
 752:/opt/XMClib/XMC_Peripheral_Library_v2.1.16/XMCLib/src/xmc_usbd.c ****   deptsiz_data_t dieptsiz;
 753:/opt/XMClib/XMC_Peripheral_Library_v2.1.16/XMCLib/src/xmc_usbd.c ****   uint16_t temp;
 754:/opt/XMClib/XMC_Peripheral_Library_v2.1.16/XMCLib/src/xmc_usbd.c ****   uint16_t temp1;
 755:/opt/XMClib/XMC_Peripheral_Library_v2.1.16/XMCLib/src/xmc_usbd.c ****   uint16_t mask;
 756:/opt/XMClib/XMC_Peripheral_Library_v2.1.16/XMCLib/src/xmc_usbd.c ****   uint8_t ep_num;
 757:/opt/XMClib/XMC_Peripheral_Library_v2.1.16/XMCLib/src/xmc_usbd.c ****   uint32_t inepint;
 758:/opt/XMClib/XMC_Peripheral_Library_v2.1.16/XMCLib/src/xmc_usbd.c **** 	
 759:/opt/XMClib/XMC_Peripheral_Library_v2.1.16/XMCLib/src/xmc_usbd.c ****   daint.d32 = xmc_device.device_register->daint;
 1957              		.loc 1 759 0
 1958 0008 6B4B     		ldr	r3, .L110
 1959 000a D3F8A431 		ldr	r3, [r3, #420]
 1960 000e 9B69     		ldr	r3, [r3, #24]
 1961 0010 7B61     		str	r3, [r7, #20]
 760:/opt/XMClib/XMC_Peripheral_Library_v2.1.16/XMCLib/src/xmc_usbd.c ****   
 761:/opt/XMClib/XMC_Peripheral_Library_v2.1.16/XMCLib/src/xmc_usbd.c ****   diepmsk.d32 = xmc_device.device_register->diepmsk;
 1962              		.loc 1 761 0
 1963 0012 694B     		ldr	r3, .L110
 1964 0014 D3F8A431 		ldr	r3, [r3, #420]
 1965 0018 1B69     		ldr	r3, [r3, #16]
 1966 001a 3B61     		str	r3, [r7, #16]
 762:/opt/XMClib/XMC_Peripheral_Library_v2.1.16/XMCLib/src/xmc_usbd.c ****   
 763:/opt/XMClib/XMC_Peripheral_Library_v2.1.16/XMCLib/src/xmc_usbd.c ****   dieptsiz.d32 = 0U;
 1967              		.loc 1 763 0
 1968 001c 0023     		movs	r3, #0
 1969 001e BB60     		str	r3, [r7, #8]
 764:/opt/XMClib/XMC_Peripheral_Library_v2.1.16/XMCLib/src/xmc_usbd.c ****   mask = daint.ep.in;
 1970              		.loc 1 764 0
 1971 0020 BB8A     		ldrh	r3, [r7, #20]	@ movhi
 1972 0022 BB85     		strh	r3, [r7, #44]	@ movhi
 765:/opt/XMClib/XMC_Peripheral_Library_v2.1.16/XMCLib/src/xmc_usbd.c ****   ep_num = 0U;
 1973              		.loc 1 765 0
 1974 0024 0023     		movs	r3, #0
 1975 0026 87F82F30 		strb	r3, [r7, #47]
 766:/opt/XMClib/XMC_Peripheral_Library_v2.1.16/XMCLib/src/xmc_usbd.c ****   
 767:/opt/XMClib/XMC_Peripheral_Library_v2.1.16/XMCLib/src/xmc_usbd.c ****   while ((uint16_t)mask >> ep_num)
 1976              		.loc 1 767 0
 1977 002a B6E0     		b	.L101
 1978              	.L109:
 768:/opt/XMClib/XMC_Peripheral_Library_v2.1.16/XMCLib/src/xmc_usbd.c ****   {
 769:/opt/XMClib/XMC_Peripheral_Library_v2.1.16/XMCLib/src/xmc_usbd.c ****     temp1 = ((uint16_t)mask >> (uint16_t)ep_num);
 1979              		.loc 1 769 0
 1980 002c BA8D     		ldrh	r2, [r7, #44]
 1981 002e 97F82F30 		ldrb	r3, [r7, #47]	@ zero_extendqisi2
 1982 0032 42FA03F3 		asr	r3, r2, r3
 1983 0036 7B85     		strh	r3, [r7, #42]	@ movhi
 770:/opt/XMClib/XMC_Peripheral_Library_v2.1.16/XMCLib/src/xmc_usbd.c ****     temp = (uint16_t)temp1 & (uint16_t)0x1U;
 1984              		.loc 1 770 0
 1985 0038 7B8D     		ldrh	r3, [r7, #42]	@ movhi
 1986 003a 03F00103 		and	r3, r3, #1
 1987 003e 3B85     		strh	r3, [r7, #40]	@ movhi
 771:/opt/XMClib/XMC_Peripheral_Library_v2.1.16/XMCLib/src/xmc_usbd.c ****     if ((uint16_t)temp)
 1988              		.loc 1 771 0
 1989 0040 3B8D     		ldrh	r3, [r7, #40]
 1990 0042 002B     		cmp	r3, #0
 1991 0044 00F0A480 		beq	.L102
 772:/opt/XMClib/XMC_Peripheral_Library_v2.1.16/XMCLib/src/xmc_usbd.c ****     {
 773:/opt/XMClib/XMC_Peripheral_Library_v2.1.16/XMCLib/src/xmc_usbd.c ****       ep = &xmc_device.ep[ep_num];
 1992              		.loc 1 773 0
 1993 0048 97F82F30 		ldrb	r3, [r7, #47]	@ zero_extendqisi2
 1994 004c 3422     		movs	r2, #52
 1995 004e 02FB03F3 		mul	r3, r2, r3
 1996 0052 594A     		ldr	r2, .L110
 1997 0054 1344     		add	r3, r3, r2
 1998 0056 7B62     		str	r3, [r7, #36]
 774:/opt/XMClib/XMC_Peripheral_Library_v2.1.16/XMCLib/src/xmc_usbd.c **** 			inepint = (uint32_t)xmc_device.endpoint_in_register[ep_num]->diepint;
 1999              		.loc 1 774 0
 2000 0058 97F82F30 		ldrb	r3, [r7, #47]	@ zero_extendqisi2
 2001 005c 564A     		ldr	r2, .L110
 2002 005e 6A33     		adds	r3, r3, #106
 2003 0060 52F82330 		ldr	r3, [r2, r3, lsl #2]
 2004 0064 9B68     		ldr	r3, [r3, #8]
 2005 0066 3B62     		str	r3, [r7, #32]
 775:/opt/XMClib/XMC_Peripheral_Library_v2.1.16/XMCLib/src/xmc_usbd.c ****       diepint.d32 = inepint &
 776:/opt/XMClib/XMC_Peripheral_Library_v2.1.16/XMCLib/src/xmc_usbd.c ****       ((((uint32_t)((uint32_t)xmc_device.device_register->dtknqr4_fifoemptymsk >> ep->address_u.add
 2006              		.loc 1 776 0
 2007 0068 534B     		ldr	r3, .L110
 2008 006a D3F8A431 		ldr	r3, [r3, #420]
 2009 006e 5B6B     		ldr	r3, [r3, #52]
 2010 0070 7A6A     		ldr	r2, [r7, #36]
 2011 0072 1278     		ldrb	r2, [r2]
 2012 0074 C2F30302 		ubfx	r2, r2, #0, #4
 2013 0078 D2B2     		uxtb	r2, r2
 2014 007a D340     		lsrs	r3, r3, r2
 777:/opt/XMClib/XMC_Peripheral_Library_v2.1.16/XMCLib/src/xmc_usbd.c ****                      0x1U) << 7U) | (uint32_t)diepmsk.d32);
 2015              		.loc 1 777 0
 2016 007c DB01     		lsls	r3, r3, #7
 2017 007e 03F08002 		and	r2, r3, #128
 2018 0082 3B69     		ldr	r3, [r7, #16]
 2019 0084 1A43     		orrs	r2, r2, r3
 775:/opt/XMClib/XMC_Peripheral_Library_v2.1.16/XMCLib/src/xmc_usbd.c ****       diepint.d32 = inepint &
 2020              		.loc 1 775 0
 2021 0086 3B6A     		ldr	r3, [r7, #32]
 2022 0088 1340     		ands	r3, r3, r2
 2023 008a FB60     		str	r3, [r7, #12]
 778:/opt/XMClib/XMC_Peripheral_Library_v2.1.16/XMCLib/src/xmc_usbd.c ****       if(obj->usbd_transfer_mode == XMC_USBD_USE_DMA)
 2024              		.loc 1 778 0
 2025 008c 7B68     		ldr	r3, [r7, #4]
 2026 008e 5B7B     		ldrb	r3, [r3, #13]	@ zero_extendqisi2
 2027 0090 002B     		cmp	r3, #0
 2028 0092 07D1     		bne	.L103
 779:/opt/XMClib/XMC_Peripheral_Library_v2.1.16/XMCLib/src/xmc_usbd.c ****       {
 780:/opt/XMClib/XMC_Peripheral_Library_v2.1.16/XMCLib/src/xmc_usbd.c ****         dieptsiz.d32 = xmc_device.endpoint_in_register[ep_num]->dieptsiz;
 2029              		.loc 1 780 0
 2030 0094 97F82F30 		ldrb	r3, [r7, #47]	@ zero_extendqisi2
 2031 0098 474A     		ldr	r2, .L110
 2032 009a 6A33     		adds	r3, r3, #106
 2033 009c 52F82330 		ldr	r3, [r2, r3, lsl #2]
 2034 00a0 1B69     		ldr	r3, [r3, #16]
 2035 00a2 BB60     		str	r3, [r7, #8]
 2036              	.L103:
 781:/opt/XMClib/XMC_Peripheral_Library_v2.1.16/XMCLib/src/xmc_usbd.c ****       }
 782:/opt/XMClib/XMC_Peripheral_Library_v2.1.16/XMCLib/src/xmc_usbd.c ****       if(obj->usbd_transfer_mode == XMC_USBD_USE_FIFO)
 2037              		.loc 1 782 0
 2038 00a4 7B68     		ldr	r3, [r7, #4]
 2039 00a6 5B7B     		ldrb	r3, [r3, #13]	@ zero_extendqisi2
 2040 00a8 012B     		cmp	r3, #1
 2041 00aa 15D1     		bne	.L104
 783:/opt/XMClib/XMC_Peripheral_Library_v2.1.16/XMCLib/src/xmc_usbd.c ****       {
 784:/opt/XMClib/XMC_Peripheral_Library_v2.1.16/XMCLib/src/xmc_usbd.c ****         if (diepint.b.emptyintr)
 2042              		.loc 1 784 0
 2043 00ac 3B7B     		ldrb	r3, [r7, #12]	@ zero_extendqisi2
 2044 00ae 23F07F03 		bic	r3, r3, #127
 2045 00b2 DBB2     		uxtb	r3, r3
 2046 00b4 002B     		cmp	r3, #0
 2047 00b6 0FD0     		beq	.L104
 2048              	.LBB4:
 785:/opt/XMClib/XMC_Peripheral_Library_v2.1.16/XMCLib/src/xmc_usbd.c ****         {
 786:/opt/XMClib/XMC_Peripheral_Library_v2.1.16/XMCLib/src/xmc_usbd.c ****           uint32_t bytes;
 787:/opt/XMClib/XMC_Peripheral_Library_v2.1.16/XMCLib/src/xmc_usbd.c ****           bytes = XMC_USBD_lWriteFifo(ep);
 2049              		.loc 1 787 0
 2050 00b8 786A     		ldr	r0, [r7, #36]
 2051 00ba FFF7FEFF 		bl	XMC_USBD_lWriteFifo
 2052 00be F861     		str	r0, [r7, #28]
 788:/opt/XMClib/XMC_Peripheral_Library_v2.1.16/XMCLib/src/xmc_usbd.c ****           ep->xferCount += bytes;
 2053              		.loc 1 788 0
 2054 00c0 7B6A     		ldr	r3, [r7, #36]
 2055 00c2 DA6A     		ldr	r2, [r3, #44]
 2056 00c4 FB69     		ldr	r3, [r7, #28]
 2057 00c6 1A44     		add	r2, r2, r3
 2058 00c8 7B6A     		ldr	r3, [r7, #36]
 2059 00ca DA62     		str	r2, [r3, #44]
 789:/opt/XMClib/XMC_Peripheral_Library_v2.1.16/XMCLib/src/xmc_usbd.c ****           ep->xferBuffer += bytes;
 2060              		.loc 1 789 0
 2061 00cc 7B6A     		ldr	r3, [r7, #36]
 2062 00ce 5A6A     		ldr	r2, [r3, #36]
 2063 00d0 FB69     		ldr	r3, [r7, #28]
 2064 00d2 1A44     		add	r2, r2, r3
 2065 00d4 7B6A     		ldr	r3, [r7, #36]
 2066 00d6 5A62     		str	r2, [r3, #36]
 2067              	.L104:
 2068              	.LBE4:
 790:/opt/XMClib/XMC_Peripheral_Library_v2.1.16/XMCLib/src/xmc_usbd.c ****         }
 791:/opt/XMClib/XMC_Peripheral_Library_v2.1.16/XMCLib/src/xmc_usbd.c ****       }
 792:/opt/XMClib/XMC_Peripheral_Library_v2.1.16/XMCLib/src/xmc_usbd.c ****       if (diepint.b.xfercompl)
 2069              		.loc 1 792 0
 2070 00d8 3B7B     		ldrb	r3, [r7, #12]	@ zero_extendqisi2
 2071 00da 03F00103 		and	r3, r3, #1
 2072 00de DBB2     		uxtb	r3, r3
 2073 00e0 002B     		cmp	r3, #0
 2074 00e2 4ED0     		beq	.L105
 793:/opt/XMClib/XMC_Peripheral_Library_v2.1.16/XMCLib/src/xmc_usbd.c ****       {
 794:/opt/XMClib/XMC_Peripheral_Library_v2.1.16/XMCLib/src/xmc_usbd.c ****         if(obj->usbd_transfer_mode == XMC_USBD_USE_DMA)
 2075              		.loc 1 794 0
 2076 00e4 7B68     		ldr	r3, [r7, #4]
 2077 00e6 5B7B     		ldrb	r3, [r3, #13]	@ zero_extendqisi2
 2078 00e8 002B     		cmp	r3, #0
 2079 00ea 1DD1     		bne	.L106
 795:/opt/XMClib/XMC_Peripheral_Library_v2.1.16/XMCLib/src/xmc_usbd.c ****         {
 796:/opt/XMClib/XMC_Peripheral_Library_v2.1.16/XMCLib/src/xmc_usbd.c ****           /* update xfer values */
 797:/opt/XMClib/XMC_Peripheral_Library_v2.1.16/XMCLib/src/xmc_usbd.c ****           if ((dieptsiz.b.pktcnt == 0U) && (dieptsiz.b.xfersize == 0U))
 2080              		.loc 1 797 0
 2081 00ec 7A89     		ldrh	r2, [r7, #10]
 2082 00ee 41F6F873 		movw	r3, #8184
 2083 00f2 1340     		ands	r3, r3, r2
 2084 00f4 9BB2     		uxth	r3, r3
 2085 00f6 002B     		cmp	r3, #0
 2086 00f8 16D1     		bne	.L106
 2087              		.loc 1 797 0 is_stmt 0 discriminator 1
 2088 00fa BB68     		ldr	r3, [r7, #8]
 2089 00fc C3F31203 		ubfx	r3, r3, #0, #19
 2090 0100 002B     		cmp	r3, #0
 2091 0102 11D1     		bne	.L106
 2092              	.LBB5:
 798:/opt/XMClib/XMC_Peripheral_Library_v2.1.16/XMCLib/src/xmc_usbd.c ****           {
 799:/opt/XMClib/XMC_Peripheral_Library_v2.1.16/XMCLib/src/xmc_usbd.c ****             uint32_t Bytes = ep->xferLength - ep->xferCount;
 2093              		.loc 1 799 0 is_stmt 1
 2094 0104 7B6A     		ldr	r3, [r7, #36]
 2095 0106 9A6A     		ldr	r2, [r3, #40]
 2096 0108 7B6A     		ldr	r3, [r7, #36]
 2097 010a DB6A     		ldr	r3, [r3, #44]
 2098 010c D31A     		subs	r3, r2, r3
 2099 010e BB61     		str	r3, [r7, #24]
 800:/opt/XMClib/XMC_Peripheral_Library_v2.1.16/XMCLib/src/xmc_usbd.c ****             ep->xferCount += Bytes;
 2100              		.loc 1 800 0
 2101 0110 7B6A     		ldr	r3, [r7, #36]
 2102 0112 DA6A     		ldr	r2, [r3, #44]
 2103 0114 BB69     		ldr	r3, [r7, #24]
 2104 0116 1A44     		add	r2, r2, r3
 2105 0118 7B6A     		ldr	r3, [r7, #36]
 2106 011a DA62     		str	r2, [r3, #44]
 801:/opt/XMClib/XMC_Peripheral_Library_v2.1.16/XMCLib/src/xmc_usbd.c ****             ep->xferBuffer += Bytes;
 2107              		.loc 1 801 0
 2108 011c 7B6A     		ldr	r3, [r7, #36]
 2109 011e 5A6A     		ldr	r2, [r3, #36]
 2110 0120 BB69     		ldr	r3, [r7, #24]
 2111 0122 1A44     		add	r2, r2, r3
 2112 0124 7B6A     		ldr	r3, [r7, #36]
 2113 0126 5A62     		str	r2, [r3, #36]
 2114              	.L106:
 2115              	.LBE5:
 802:/opt/XMClib/XMC_Peripheral_Library_v2.1.16/XMCLib/src/xmc_usbd.c ****           }
 803:/opt/XMClib/XMC_Peripheral_Library_v2.1.16/XMCLib/src/xmc_usbd.c ****         }
 804:/opt/XMClib/XMC_Peripheral_Library_v2.1.16/XMCLib/src/xmc_usbd.c ****         if (ep->xferTotal==ep->xferLength)
 2116              		.loc 1 804 0
 2117 0128 7B6A     		ldr	r3, [r7, #36]
 2118 012a 1A6B     		ldr	r2, [r3, #48]
 2119 012c 7B6A     		ldr	r3, [r7, #36]
 2120 012e 9B6A     		ldr	r3, [r3, #40]
 2121 0130 9A42     		cmp	r2, r3
 2122 0132 23D1     		bne	.L107
 805:/opt/XMClib/XMC_Peripheral_Library_v2.1.16/XMCLib/src/xmc_usbd.c ****         {
 806:/opt/XMClib/XMC_Peripheral_Library_v2.1.16/XMCLib/src/xmc_usbd.c ****           ep->inInUse = 0U;
 2123              		.loc 1 806 0
 2124 0134 7A6A     		ldr	r2, [r7, #36]
 2125 0136 5368     		ldr	r3, [r2, #4]
 2126 0138 6FF3C303 		bfc	r3, #3, #1
 2127 013c 5360     		str	r3, [r2, #4]
 807:/opt/XMClib/XMC_Peripheral_Library_v2.1.16/XMCLib/src/xmc_usbd.c ****           if(obj->usbd_transfer_mode == XMC_USBD_USE_FIFO)
 2128              		.loc 1 807 0
 2129 013e 7B68     		ldr	r3, [r7, #4]
 2130 0140 5B7B     		ldrb	r3, [r3, #13]	@ zero_extendqisi2
 2131 0142 012B     		cmp	r3, #1
 2132 0144 0ED1     		bne	.L108
 808:/opt/XMClib/XMC_Peripheral_Library_v2.1.16/XMCLib/src/xmc_usbd.c ****           {
 809:/opt/XMClib/XMC_Peripheral_Library_v2.1.16/XMCLib/src/xmc_usbd.c ****             /* mask fifo empty interrupt */
 810:/opt/XMClib/XMC_Peripheral_Library_v2.1.16/XMCLib/src/xmc_usbd.c ****             xmc_device.device_register->dtknqr4_fifoemptymsk =
 811:/opt/XMClib/XMC_Peripheral_Library_v2.1.16/XMCLib/src/xmc_usbd.c ****             (uint32_t)(xmc_device.device_register->dtknqr4_fifoemptymsk & ~(((uint32_t)1U << ep_num
 2133              		.loc 1 811 0
 2134 0146 1C4B     		ldr	r3, .L110
 2135 0148 D3F8A431 		ldr	r3, [r3, #420]
 2136 014c 596B     		ldr	r1, [r3, #52]
 2137 014e 97F82F30 		ldrb	r3, [r7, #47]	@ zero_extendqisi2
 2138 0152 0122     		movs	r2, #1
 2139 0154 02FA03F3 		lsl	r3, r2, r3
 2140 0158 DA43     		mvns	r2, r3
 810:/opt/XMClib/XMC_Peripheral_Library_v2.1.16/XMCLib/src/xmc_usbd.c ****             (uint32_t)(xmc_device.device_register->dtknqr4_fifoemptymsk & ~(((uint32_t)1U << ep_num
 2141              		.loc 1 810 0
 2142 015a 174B     		ldr	r3, .L110
 2143 015c D3F8A431 		ldr	r3, [r3, #420]
 2144              		.loc 1 811 0
 2145 0160 0A40     		ands	r2, r2, r1
 810:/opt/XMClib/XMC_Peripheral_Library_v2.1.16/XMCLib/src/xmc_usbd.c ****             (uint32_t)(xmc_device.device_register->dtknqr4_fifoemptymsk & ~(((uint32_t)1U << ep_num
 2146              		.loc 1 810 0
 2147 0162 5A63     		str	r2, [r3, #52]
 2148              	.L108:
 812:/opt/XMClib/XMC_Peripheral_Library_v2.1.16/XMCLib/src/xmc_usbd.c ****           }
 813:/opt/XMClib/XMC_Peripheral_Library_v2.1.16/XMCLib/src/xmc_usbd.c ****           xmc_device.EndpointEvent_cb(0x80U | ep_num,XMC_USBD_EP_EVENT_IN);
 2149              		.loc 1 813 0
 2150 0164 144B     		ldr	r3, .L110
 2151 0166 D3F80432 		ldr	r3, [r3, #516]
 2152 016a 97F82F20 		ldrb	r2, [r7, #47]
 2153 016e 62F07F02 		orn	r2, r2, #127
 2154 0172 D2B2     		uxtb	r2, r2
 2155 0174 0221     		movs	r1, #2
 2156 0176 1046     		mov	r0, r2
 2157 0178 9847     		blx	r3
 2158              	.LVL5:
 2159 017a 02E0     		b	.L105
 2160              	.L107:
 814:/opt/XMClib/XMC_Peripheral_Library_v2.1.16/XMCLib/src/xmc_usbd.c ****         }
 815:/opt/XMClib/XMC_Peripheral_Library_v2.1.16/XMCLib/src/xmc_usbd.c ****         else
 816:/opt/XMClib/XMC_Peripheral_Library_v2.1.16/XMCLib/src/xmc_usbd.c ****         {
 817:/opt/XMClib/XMC_Peripheral_Library_v2.1.16/XMCLib/src/xmc_usbd.c ****           /* start next step of transfer */
 818:/opt/XMClib/XMC_Peripheral_Library_v2.1.16/XMCLib/src/xmc_usbd.c ****           XMC_USBD_lStartWriteXfer(ep);
 2161              		.loc 1 818 0
 2162 017c 786A     		ldr	r0, [r7, #36]
 2163 017e FFF7FEFF 		bl	XMC_USBD_lStartWriteXfer
 2164              	.L105:
 819:/opt/XMClib/XMC_Peripheral_Library_v2.1.16/XMCLib/src/xmc_usbd.c ****         }
 820:/opt/XMClib/XMC_Peripheral_Library_v2.1.16/XMCLib/src/xmc_usbd.c **** 
 821:/opt/XMClib/XMC_Peripheral_Library_v2.1.16/XMCLib/src/xmc_usbd.c ****       }
 822:/opt/XMClib/XMC_Peripheral_Library_v2.1.16/XMCLib/src/xmc_usbd.c **** 
 823:/opt/XMClib/XMC_Peripheral_Library_v2.1.16/XMCLib/src/xmc_usbd.c ****       XMC_USBD_ClearEventINEP((uint32_t)diepint.d32,ep_num);
 2165              		.loc 1 823 0
 2166 0182 FB68     		ldr	r3, [r7, #12]
 2167 0184 97F82F20 		ldrb	r2, [r7, #47]	@ zero_extendqisi2
 2168 0188 1146     		mov	r1, r2
 2169 018a 1846     		mov	r0, r3
 2170 018c FFF7FEFF 		bl	XMC_USBD_ClearEventINEP
 2171              	.L102:
 824:/opt/XMClib/XMC_Peripheral_Library_v2.1.16/XMCLib/src/xmc_usbd.c ****     }
 825:/opt/XMClib/XMC_Peripheral_Library_v2.1.16/XMCLib/src/xmc_usbd.c ****     ep_num++;
 2172              		.loc 1 825 0
 2173 0190 97F82F30 		ldrb	r3, [r7, #47]	@ zero_extendqisi2
 2174 0194 0133     		adds	r3, r3, #1
 2175 0196 87F82F30 		strb	r3, [r7, #47]
 2176              	.L101:
 767:/opt/XMClib/XMC_Peripheral_Library_v2.1.16/XMCLib/src/xmc_usbd.c ****   {
 2177              		.loc 1 767 0
 2178 019a BA8D     		ldrh	r2, [r7, #44]
 2179 019c 97F82F30 		ldrb	r3, [r7, #47]	@ zero_extendqisi2
 2180 01a0 42FA03F3 		asr	r3, r2, r3
 2181 01a4 002B     		cmp	r3, #0
 2182 01a6 7FF441AF 		bne	.L109
 826:/opt/XMClib/XMC_Peripheral_Library_v2.1.16/XMCLib/src/xmc_usbd.c ****   }
 827:/opt/XMClib/XMC_Peripheral_Library_v2.1.16/XMCLib/src/xmc_usbd.c ****   XMC_USBD_ClearEvent(XMC_USBD_EVENT_INEP);
 2183              		.loc 1 827 0
 2184 01aa 0E20     		movs	r0, #14
 2185 01ac FFF7FEFF 		bl	XMC_USBD_ClearEvent
 828:/opt/XMClib/XMC_Peripheral_Library_v2.1.16/XMCLib/src/xmc_usbd.c **** }
 2186              		.loc 1 828 0
 2187 01b0 00BF     		nop
 2188 01b2 3037     		adds	r7, r7, #48
 2189              	.LCFI77:
 2190              		.cfi_def_cfa_offset 8
 2191 01b4 BD46     		mov	sp, r7
 2192              	.LCFI78:
 2193              		.cfi_def_cfa_register 13
 2194              		@ sp needed
 2195 01b6 80BD     		pop	{r7, pc}
 2196              	.L111:
 2197              		.align	2
 2198              	.L110:
 2199 01b8 00000000 		.word	xmc_device
 2200              		.cfi_endproc
 2201              	.LFE175:
 2203              		.section	.text.XMC_USBD_lHandleRxFLvl,"ax",%progbits
 2204              		.align	1
 2205              		.syntax unified
 2206              		.thumb
 2207              		.thumb_func
 2208              		.fpu fpv4-sp-d16
 2210              	XMC_USBD_lHandleRxFLvl:
 2211              	.LFB176:
 829:/opt/XMClib/XMC_Peripheral_Library_v2.1.16/XMCLib/src/xmc_usbd.c **** 
 830:/opt/XMClib/XMC_Peripheral_Library_v2.1.16/XMCLib/src/xmc_usbd.c **** /**
 831:/opt/XMClib/XMC_Peripheral_Library_v2.1.16/XMCLib/src/xmc_usbd.c ****  * @brief RX Fifo interrupt handler
 832:/opt/XMClib/XMC_Peripheral_Library_v2.1.16/XMCLib/src/xmc_usbd.c ****  *
 833:/opt/XMClib/XMC_Peripheral_Library_v2.1.16/XMCLib/src/xmc_usbd.c ****  * This function handles the interrupt, when the rx fifo is not empty anymore.
 834:/opt/XMClib/XMC_Peripheral_Library_v2.1.16/XMCLib/src/xmc_usbd.c ****  */
 835:/opt/XMClib/XMC_Peripheral_Library_v2.1.16/XMCLib/src/xmc_usbd.c **** static void XMC_USBD_lHandleRxFLvl(void) 
 836:/opt/XMClib/XMC_Peripheral_Library_v2.1.16/XMCLib/src/xmc_usbd.c **** {
 2212              		.loc 1 836 0
 2213              		.cfi_startproc
 2214              		@ args = 0, pretend = 0, frame = 8
 2215              		@ frame_needed = 1, uses_anonymous_args = 0
 2216 0000 80B5     		push	{r7, lr}
 2217              	.LCFI79:
 2218              		.cfi_def_cfa_offset 8
 2219              		.cfi_offset 7, -8
 2220              		.cfi_offset 14, -4
 2221 0002 82B0     		sub	sp, sp, #8
 2222              	.LCFI80:
 2223              		.cfi_def_cfa_offset 16
 2224 0004 00AF     		add	r7, sp, #0
 2225              	.LCFI81:
 2226              		.cfi_def_cfa_register 7
 837:/opt/XMClib/XMC_Peripheral_Library_v2.1.16/XMCLib/src/xmc_usbd.c ****   device_grxsts_data_t data;	
 838:/opt/XMClib/XMC_Peripheral_Library_v2.1.16/XMCLib/src/xmc_usbd.c ****   data.d32 = xmc_device.global_register->grxstsp;
 2227              		.loc 1 838 0
 2228 0006 1E4B     		ldr	r3, .L122
 2229 0008 D3F8A031 		ldr	r3, [r3, #416]
 2230 000c 1B6A     		ldr	r3, [r3, #32]
 2231 000e 7B60     		str	r3, [r7, #4]
 839:/opt/XMClib/XMC_Peripheral_Library_v2.1.16/XMCLib/src/xmc_usbd.c **** 
 840:/opt/XMClib/XMC_Peripheral_Library_v2.1.16/XMCLib/src/xmc_usbd.c ****   switch (data.b.pktsts)
 2232              		.loc 1 840 0
 2233 0010 BB79     		ldrb	r3, [r7, #6]
 2234 0012 C3F34303 		ubfx	r3, r3, #1, #4
 2235 0016 DBB2     		uxtb	r3, r3
 2236 0018 013B     		subs	r3, r3, #1
 2237 001a 052B     		cmp	r3, #5
 2238 001c 2AD8     		bhi	.L121
 2239 001e 01A2     		adr	r2, .L115
 2240 0020 52F823F0 		ldr	pc, [r2, r3, lsl #2]
 2241              		.p2align 2
 2242              	.L115:
 2243 0024 75000000 		.word	.L121+1
 2244 0028 3D000000 		.word	.L116+1
 2245 002c 75000000 		.word	.L121+1
 2246 0030 75000000 		.word	.L121+1
 2247 0034 75000000 		.word	.L121+1
 2248 0038 59000000 		.word	.L119+1
 2249              		.p2align 1
 2250              	.L116:
 841:/opt/XMClib/XMC_Peripheral_Library_v2.1.16/XMCLib/src/xmc_usbd.c **** 	{
 842:/opt/XMClib/XMC_Peripheral_Library_v2.1.16/XMCLib/src/xmc_usbd.c ****     case XMC_USBD_GRXSTS_PKTSTS_GOUTNAK:
 843:/opt/XMClib/XMC_Peripheral_Library_v2.1.16/XMCLib/src/xmc_usbd.c ****       break;
 844:/opt/XMClib/XMC_Peripheral_Library_v2.1.16/XMCLib/src/xmc_usbd.c ****     case XMC_USBD_GRXSTS_PKTSTS_OUTCMPL:
 845:/opt/XMClib/XMC_Peripheral_Library_v2.1.16/XMCLib/src/xmc_usbd.c ****       break;
 846:/opt/XMClib/XMC_Peripheral_Library_v2.1.16/XMCLib/src/xmc_usbd.c ****     case XMC_USBD_GRXSTS_PKTSTS_OUTDATA:
 847:/opt/XMClib/XMC_Peripheral_Library_v2.1.16/XMCLib/src/xmc_usbd.c ****       XMC_USBD_lReadFifo((uint32_t)data.b.epnum,(uint32_t)data.b.bcnt);
 2251              		.loc 1 847 0
 2252 003c 3B79     		ldrb	r3, [r7, #4]
 2253 003e C3F30303 		ubfx	r3, r3, #0, #4
 2254 0042 DBB2     		uxtb	r3, r3
 2255 0044 1A46     		mov	r2, r3
 2256 0046 BB88     		ldrh	r3, [r7, #4]	@ movhi
 2257 0048 C3F30A13 		ubfx	r3, r3, #4, #11
 2258 004c 9BB2     		uxth	r3, r3
 2259 004e 1946     		mov	r1, r3
 2260 0050 1046     		mov	r0, r2
 2261 0052 FFF7FEFF 		bl	XMC_USBD_lReadFifo
 848:/opt/XMClib/XMC_Peripheral_Library_v2.1.16/XMCLib/src/xmc_usbd.c ****       break;
 2262              		.loc 1 848 0
 2263 0056 0EE0     		b	.L120
 2264              	.L119:
 849:/opt/XMClib/XMC_Peripheral_Library_v2.1.16/XMCLib/src/xmc_usbd.c ****     case XMC_USBD_GRXSTS_PKTSTS_SETUP:
 850:/opt/XMClib/XMC_Peripheral_Library_v2.1.16/XMCLib/src/xmc_usbd.c ****       XMC_USBD_lReadFifo((uint32_t)data.b.epnum,(uint32_t)data.b.bcnt);
 2265              		.loc 1 850 0
 2266 0058 3B79     		ldrb	r3, [r7, #4]
 2267 005a C3F30303 		ubfx	r3, r3, #0, #4
 2268 005e DBB2     		uxtb	r3, r3
 2269 0060 1A46     		mov	r2, r3
 2270 0062 BB88     		ldrh	r3, [r7, #4]	@ movhi
 2271 0064 C3F30A13 		ubfx	r3, r3, #4, #11
 2272 0068 9BB2     		uxth	r3, r3
 2273 006a 1946     		mov	r1, r3
 2274 006c 1046     		mov	r0, r2
 2275 006e FFF7FEFF 		bl	XMC_USBD_lReadFifo
 851:/opt/XMClib/XMC_Peripheral_Library_v2.1.16/XMCLib/src/xmc_usbd.c ****       break;
 2276              		.loc 1 851 0
 2277 0072 00E0     		b	.L120
 2278              	.L121:
 852:/opt/XMClib/XMC_Peripheral_Library_v2.1.16/XMCLib/src/xmc_usbd.c ****     case XMC_USBD_GRXSTS_PKTSTS_SETUPCMPL:
 853:/opt/XMClib/XMC_Peripheral_Library_v2.1.16/XMCLib/src/xmc_usbd.c ****       break;
 854:/opt/XMClib/XMC_Peripheral_Library_v2.1.16/XMCLib/src/xmc_usbd.c ****     default:
 855:/opt/XMClib/XMC_Peripheral_Library_v2.1.16/XMCLib/src/xmc_usbd.c ****       break;
 2279              		.loc 1 855 0
 2280 0074 00BF     		nop
 2281              	.L120:
 856:/opt/XMClib/XMC_Peripheral_Library_v2.1.16/XMCLib/src/xmc_usbd.c **** 	}
 857:/opt/XMClib/XMC_Peripheral_Library_v2.1.16/XMCLib/src/xmc_usbd.c ****   /* no need to clear */
 858:/opt/XMClib/XMC_Peripheral_Library_v2.1.16/XMCLib/src/xmc_usbd.c **** }
 2282              		.loc 1 858 0
 2283 0076 00BF     		nop
 2284 0078 0837     		adds	r7, r7, #8
 2285              	.LCFI82:
 2286              		.cfi_def_cfa_offset 8
 2287 007a BD46     		mov	sp, r7
 2288              	.LCFI83:
 2289              		.cfi_def_cfa_register 13
 2290              		@ sp needed
 2291 007c 80BD     		pop	{r7, pc}
 2292              	.L123:
 2293 007e 00BF     		.align	2
 2294              	.L122:
 2295 0080 00000000 		.word	xmc_device
 2296              		.cfi_endproc
 2297              	.LFE176:
 2299              		.section	.text.XMC_USBD_IRQHandler,"ax",%progbits
 2300              		.align	1
 2301              		.global	XMC_USBD_IRQHandler
 2302              		.syntax unified
 2303              		.thumb
 2304              		.thumb_func
 2305              		.fpu fpv4-sp-d16
 2307              	XMC_USBD_IRQHandler:
 2308              	.LFB177:
 859:/opt/XMClib/XMC_Peripheral_Library_v2.1.16/XMCLib/src/xmc_usbd.c **** 
 860:/opt/XMClib/XMC_Peripheral_Library_v2.1.16/XMCLib/src/xmc_usbd.c **** /**
 861:/opt/XMClib/XMC_Peripheral_Library_v2.1.16/XMCLib/src/xmc_usbd.c ****  * @brief Global interrupt handler
 862:/opt/XMClib/XMC_Peripheral_Library_v2.1.16/XMCLib/src/xmc_usbd.c ****  *
 863:/opt/XMClib/XMC_Peripheral_Library_v2.1.16/XMCLib/src/xmc_usbd.c ****  * The handler first checks, which global interrupt has caused the interrupt
 864:/opt/XMClib/XMC_Peripheral_Library_v2.1.16/XMCLib/src/xmc_usbd.c ****  * and then dispatches interrupt to the corresponding sub-handler.
 865:/opt/XMClib/XMC_Peripheral_Library_v2.1.16/XMCLib/src/xmc_usbd.c ****  */
 866:/opt/XMClib/XMC_Peripheral_Library_v2.1.16/XMCLib/src/xmc_usbd.c **** void XMC_USBD_IRQHandler(const XMC_USBD_t *const obj) 
 867:/opt/XMClib/XMC_Peripheral_Library_v2.1.16/XMCLib/src/xmc_usbd.c **** {
 2309              		.loc 1 867 0
 2310              		.cfi_startproc
 2311              		@ args = 0, pretend = 0, frame = 16
 2312              		@ frame_needed = 1, uses_anonymous_args = 0
 2313 0000 80B5     		push	{r7, lr}
 2314              	.LCFI84:
 2315              		.cfi_def_cfa_offset 8
 2316              		.cfi_offset 7, -8
 2317              		.cfi_offset 14, -4
 2318 0002 84B0     		sub	sp, sp, #16
 2319              	.LCFI85:
 2320              		.cfi_def_cfa_offset 24
 2321 0004 00AF     		add	r7, sp, #0
 2322              	.LCFI86:
 2323              		.cfi_def_cfa_register 7
 2324 0006 7860     		str	r0, [r7, #4]
 868:/opt/XMClib/XMC_Peripheral_Library_v2.1.16/XMCLib/src/xmc_usbd.c ****   gintmsk_data_t gintmsk;
 869:/opt/XMClib/XMC_Peripheral_Library_v2.1.16/XMCLib/src/xmc_usbd.c ****   gintsts_data_t data;
 870:/opt/XMClib/XMC_Peripheral_Library_v2.1.16/XMCLib/src/xmc_usbd.c **** 	
 871:/opt/XMClib/XMC_Peripheral_Library_v2.1.16/XMCLib/src/xmc_usbd.c ****   gintmsk.d32 = xmc_device.global_register->gintmsk;
 2325              		.loc 1 871 0
 2326 0008 504B     		ldr	r3, .L137
 2327 000a D3F8A031 		ldr	r3, [r3, #416]
 2328 000e 9B69     		ldr	r3, [r3, #24]
 2329 0010 FB60     		str	r3, [r7, #12]
 872:/opt/XMClib/XMC_Peripheral_Library_v2.1.16/XMCLib/src/xmc_usbd.c ****   data.d32 = xmc_device.global_register->gintsts & gintmsk.d32;
 2330              		.loc 1 872 0
 2331 0012 4E4B     		ldr	r3, .L137
 2332 0014 D3F8A031 		ldr	r3, [r3, #416]
 2333 0018 5A69     		ldr	r2, [r3, #20]
 2334 001a FB68     		ldr	r3, [r7, #12]
 2335 001c 1340     		ands	r3, r3, r2
 2336 001e BB60     		str	r3, [r7, #8]
 873:/opt/XMClib/XMC_Peripheral_Library_v2.1.16/XMCLib/src/xmc_usbd.c **** 	
 874:/opt/XMClib/XMC_Peripheral_Library_v2.1.16/XMCLib/src/xmc_usbd.c ****   if (data.b.sofintr)
 2337              		.loc 1 874 0
 2338 0020 3B7A     		ldrb	r3, [r7, #8]	@ zero_extendqisi2
 2339 0022 03F00803 		and	r3, r3, #8
 2340 0026 DBB2     		uxtb	r3, r3
 2341 0028 002B     		cmp	r3, #0
 2342 002a 07D0     		beq	.L125
 875:/opt/XMClib/XMC_Peripheral_Library_v2.1.16/XMCLib/src/xmc_usbd.c ****   {
 876:/opt/XMClib/XMC_Peripheral_Library_v2.1.16/XMCLib/src/xmc_usbd.c ****     xmc_device.DeviceEvent_cb(XMC_USBD_EVENT_SOF);
 2343              		.loc 1 876 0
 2344 002c 474B     		ldr	r3, .L137
 2345 002e D3F80032 		ldr	r3, [r3, #512]
 2346 0032 0920     		movs	r0, #9
 2347 0034 9847     		blx	r3
 2348              	.LVL6:
 877:/opt/XMClib/XMC_Peripheral_Library_v2.1.16/XMCLib/src/xmc_usbd.c ****     XMC_USBD_ClearEvent(XMC_USBD_EVENT_SOF);
 2349              		.loc 1 877 0
 2350 0036 0920     		movs	r0, #9
 2351 0038 FFF7FEFF 		bl	XMC_USBD_ClearEvent
 2352              	.L125:
 878:/opt/XMClib/XMC_Peripheral_Library_v2.1.16/XMCLib/src/xmc_usbd.c ****   }
 879:/opt/XMClib/XMC_Peripheral_Library_v2.1.16/XMCLib/src/xmc_usbd.c ****   if(obj->usbd_transfer_mode == XMC_USBD_USE_FIFO)
 2353              		.loc 1 879 0
 2354 003c 7B68     		ldr	r3, [r7, #4]
 2355 003e 5B7B     		ldrb	r3, [r3, #13]	@ zero_extendqisi2
 2356 0040 012B     		cmp	r3, #1
 2357 0042 19D1     		bne	.L126
 880:/opt/XMClib/XMC_Peripheral_Library_v2.1.16/XMCLib/src/xmc_usbd.c ****   {
 881:/opt/XMClib/XMC_Peripheral_Library_v2.1.16/XMCLib/src/xmc_usbd.c ****     if (data.b.rxstsqlvl)
 2358              		.loc 1 881 0
 2359 0044 3B7A     		ldrb	r3, [r7, #8]	@ zero_extendqisi2
 2360 0046 03F01003 		and	r3, r3, #16
 2361 004a DBB2     		uxtb	r3, r3
 2362 004c 002B     		cmp	r3, #0
 2363 004e 13D0     		beq	.L126
 882:/opt/XMClib/XMC_Peripheral_Library_v2.1.16/XMCLib/src/xmc_usbd.c ****     {
 883:/opt/XMClib/XMC_Peripheral_Library_v2.1.16/XMCLib/src/xmc_usbd.c ****       /* Masked that interrupt so its only done once */
 884:/opt/XMClib/XMC_Peripheral_Library_v2.1.16/XMCLib/src/xmc_usbd.c ****       gintmsk.b.rxstsqlvl = 0U;
 2364              		.loc 1 884 0
 2365 0050 3B7B     		ldrb	r3, [r7, #12]
 2366 0052 6FF30413 		bfc	r3, #4, #1
 2367 0056 3B73     		strb	r3, [r7, #12]
 885:/opt/XMClib/XMC_Peripheral_Library_v2.1.16/XMCLib/src/xmc_usbd.c ****       xmc_device.global_register->gintmsk = gintmsk.d32;
 2368              		.loc 1 885 0
 2369 0058 3C4B     		ldr	r3, .L137
 2370 005a D3F8A031 		ldr	r3, [r3, #416]
 2371 005e FA68     		ldr	r2, [r7, #12]
 2372 0060 9A61     		str	r2, [r3, #24]
 886:/opt/XMClib/XMC_Peripheral_Library_v2.1.16/XMCLib/src/xmc_usbd.c ****       XMC_USBD_lHandleRxFLvl(); /* handle the interrupt */
 2373              		.loc 1 886 0
 2374 0062 FFF7FEFF 		bl	XMC_USBD_lHandleRxFLvl
 887:/opt/XMClib/XMC_Peripheral_Library_v2.1.16/XMCLib/src/xmc_usbd.c ****       gintmsk.b.rxstsqlvl = 1U;
 2375              		.loc 1 887 0
 2376 0066 3B7B     		ldrb	r3, [r7, #12]
 2377 0068 43F01003 		orr	r3, r3, #16
 2378 006c 3B73     		strb	r3, [r7, #12]
 888:/opt/XMClib/XMC_Peripheral_Library_v2.1.16/XMCLib/src/xmc_usbd.c ****       xmc_device.global_register->gintmsk = gintmsk.d32;
 2379              		.loc 1 888 0
 2380 006e 374B     		ldr	r3, .L137
 2381 0070 D3F8A031 		ldr	r3, [r3, #416]
 2382 0074 FA68     		ldr	r2, [r7, #12]
 2383 0076 9A61     		str	r2, [r3, #24]
 2384              	.L126:
 889:/opt/XMClib/XMC_Peripheral_Library_v2.1.16/XMCLib/src/xmc_usbd.c ****     }
 890:/opt/XMClib/XMC_Peripheral_Library_v2.1.16/XMCLib/src/xmc_usbd.c ****   }
 891:/opt/XMClib/XMC_Peripheral_Library_v2.1.16/XMCLib/src/xmc_usbd.c ****   if (data.b.erlysuspend)
 2385              		.loc 1 891 0
 2386 0078 7B7A     		ldrb	r3, [r7, #9]	@ zero_extendqisi2
 2387 007a 03F00403 		and	r3, r3, #4
 2388 007e DBB2     		uxtb	r3, r3
 2389 0080 002B     		cmp	r3, #0
 2390 0082 02D0     		beq	.L127
 892:/opt/XMClib/XMC_Peripheral_Library_v2.1.16/XMCLib/src/xmc_usbd.c ****   {
 893:/opt/XMClib/XMC_Peripheral_Library_v2.1.16/XMCLib/src/xmc_usbd.c ****     XMC_USBD_ClearEvent(XMC_USBD_EVENT_EARLYSUSPEND);
 2391              		.loc 1 893 0
 2392 0084 0A20     		movs	r0, #10
 2393 0086 FFF7FEFF 		bl	XMC_USBD_ClearEvent
 2394              	.L127:
 894:/opt/XMClib/XMC_Peripheral_Library_v2.1.16/XMCLib/src/xmc_usbd.c ****   }
 895:/opt/XMClib/XMC_Peripheral_Library_v2.1.16/XMCLib/src/xmc_usbd.c ****   if (data.b.usbsuspend)
 2395              		.loc 1 895 0
 2396 008a 7B7A     		ldrb	r3, [r7, #9]	@ zero_extendqisi2
 2397 008c 03F00803 		and	r3, r3, #8
 2398 0090 DBB2     		uxtb	r3, r3
 2399 0092 002B     		cmp	r3, #0
 2400 0094 07D0     		beq	.L128
 896:/opt/XMClib/XMC_Peripheral_Library_v2.1.16/XMCLib/src/xmc_usbd.c ****   {
 897:/opt/XMClib/XMC_Peripheral_Library_v2.1.16/XMCLib/src/xmc_usbd.c ****     xmc_device.DeviceEvent_cb(XMC_USBD_EVENT_SUSPEND);
 2401              		.loc 1 897 0
 2402 0096 2D4B     		ldr	r3, .L137
 2403 0098 D3F80032 		ldr	r3, [r3, #512]
 2404 009c 0620     		movs	r0, #6
 2405 009e 9847     		blx	r3
 2406              	.LVL7:
 898:/opt/XMClib/XMC_Peripheral_Library_v2.1.16/XMCLib/src/xmc_usbd.c ****     XMC_USBD_ClearEvent(XMC_USBD_EVENT_SUSPEND);
 2407              		.loc 1 898 0
 2408 00a0 0620     		movs	r0, #6
 2409 00a2 FFF7FEFF 		bl	XMC_USBD_ClearEvent
 2410              	.L128:
 899:/opt/XMClib/XMC_Peripheral_Library_v2.1.16/XMCLib/src/xmc_usbd.c ****   }
 900:/opt/XMClib/XMC_Peripheral_Library_v2.1.16/XMCLib/src/xmc_usbd.c ****   if (data.b.wkupintr)
 2411              		.loc 1 900 0
 2412 00a6 FB7A     		ldrb	r3, [r7, #11]	@ zero_extendqisi2
 2413 00a8 23F07F03 		bic	r3, r3, #127
 2414 00ac DBB2     		uxtb	r3, r3
 2415 00ae 002B     		cmp	r3, #0
 2416 00b0 07D0     		beq	.L129
 901:/opt/XMClib/XMC_Peripheral_Library_v2.1.16/XMCLib/src/xmc_usbd.c ****   {
 902:/opt/XMClib/XMC_Peripheral_Library_v2.1.16/XMCLib/src/xmc_usbd.c ****     xmc_device.DeviceEvent_cb(XMC_USBD_EVENT_REMOTE_WAKEUP);
 2417              		.loc 1 902 0
 2418 00b2 264B     		ldr	r3, .L137
 2419 00b4 D3F80032 		ldr	r3, [r3, #512]
 2420 00b8 0820     		movs	r0, #8
 2421 00ba 9847     		blx	r3
 2422              	.LVL8:
 903:/opt/XMClib/XMC_Peripheral_Library_v2.1.16/XMCLib/src/xmc_usbd.c ****     XMC_USBD_ClearEvent(XMC_USBD_EVENT_REMOTE_WAKEUP);
 2423              		.loc 1 903 0
 2424 00bc 0820     		movs	r0, #8
 2425 00be FFF7FEFF 		bl	XMC_USBD_ClearEvent
 2426              	.L129:
 904:/opt/XMClib/XMC_Peripheral_Library_v2.1.16/XMCLib/src/xmc_usbd.c ****   }
 905:/opt/XMClib/XMC_Peripheral_Library_v2.1.16/XMCLib/src/xmc_usbd.c ****   if (data.b.sessreqintr)
 2427              		.loc 1 905 0
 2428 00c2 FB7A     		ldrb	r3, [r7, #11]	@ zero_extendqisi2
 2429 00c4 03F04003 		and	r3, r3, #64
 2430 00c8 DBB2     		uxtb	r3, r3
 2431 00ca 002B     		cmp	r3, #0
 2432 00cc 0ED0     		beq	.L130
 906:/opt/XMClib/XMC_Peripheral_Library_v2.1.16/XMCLib/src/xmc_usbd.c ****   {
 907:/opt/XMClib/XMC_Peripheral_Library_v2.1.16/XMCLib/src/xmc_usbd.c ****     xmc_device.IsPowered = 1U;
 2433              		.loc 1 907 0
 2434 00ce 1F4A     		ldr	r2, .L137
 2435 00d0 92F8FE31 		ldrb	r3, [r2, #510]
 2436 00d4 43F00403 		orr	r3, r3, #4
 2437 00d8 82F8FE31 		strb	r3, [r2, #510]
 908:/opt/XMClib/XMC_Peripheral_Library_v2.1.16/XMCLib/src/xmc_usbd.c ****     xmc_device.DeviceEvent_cb(XMC_USBD_EVENT_POWER_ON);
 2438              		.loc 1 908 0
 2439 00dc 1B4B     		ldr	r3, .L137
 2440 00de D3F80032 		ldr	r3, [r3, #512]
 2441 00e2 0020     		movs	r0, #0
 2442 00e4 9847     		blx	r3
 2443              	.LVL9:
 909:/opt/XMClib/XMC_Peripheral_Library_v2.1.16/XMCLib/src/xmc_usbd.c ****     XMC_USBD_ClearEvent(XMC_USBD_EVENT_POWER_ON);
 2444              		.loc 1 909 0
 2445 00e6 0020     		movs	r0, #0
 2446 00e8 FFF7FEFF 		bl	XMC_USBD_ClearEvent
 2447              	.L130:
 910:/opt/XMClib/XMC_Peripheral_Library_v2.1.16/XMCLib/src/xmc_usbd.c ****   }
 911:/opt/XMClib/XMC_Peripheral_Library_v2.1.16/XMCLib/src/xmc_usbd.c ****   if (data.b.usbreset)
 2448              		.loc 1 911 0
 2449 00ec 7B7A     		ldrb	r3, [r7, #9]	@ zero_extendqisi2
 2450 00ee 03F01003 		and	r3, r3, #16
 2451 00f2 DBB2     		uxtb	r3, r3
 2452 00f4 002B     		cmp	r3, #0
 2453 00f6 02D0     		beq	.L131
 912:/opt/XMClib/XMC_Peripheral_Library_v2.1.16/XMCLib/src/xmc_usbd.c ****   {
 913:/opt/XMClib/XMC_Peripheral_Library_v2.1.16/XMCLib/src/xmc_usbd.c ****     XMC_USBD_lHandleUSBReset(obj);
 2454              		.loc 1 913 0
 2455 00f8 7868     		ldr	r0, [r7, #4]
 2456 00fa FFF7FEFF 		bl	XMC_USBD_lHandleUSBReset
 2457              	.L131:
 914:/opt/XMClib/XMC_Peripheral_Library_v2.1.16/XMCLib/src/xmc_usbd.c ****   }
 915:/opt/XMClib/XMC_Peripheral_Library_v2.1.16/XMCLib/src/xmc_usbd.c ****   if (data.b.enumdone)
 2458              		.loc 1 915 0
 2459 00fe 7B7A     		ldrb	r3, [r7, #9]	@ zero_extendqisi2
 2460 0100 03F02003 		and	r3, r3, #32
 2461 0104 DBB2     		uxtb	r3, r3
 2462 0106 002B     		cmp	r3, #0
 2463 0108 01D0     		beq	.L132
 916:/opt/XMClib/XMC_Peripheral_Library_v2.1.16/XMCLib/src/xmc_usbd.c ****   {
 917:/opt/XMClib/XMC_Peripheral_Library_v2.1.16/XMCLib/src/xmc_usbd.c ****     XMC_USBD_lHandleEnumDone();
 2464              		.loc 1 917 0
 2465 010a FFF7FEFF 		bl	XMC_USBD_lHandleEnumDone
 2466              	.L132:
 918:/opt/XMClib/XMC_Peripheral_Library_v2.1.16/XMCLib/src/xmc_usbd.c ****   }
 919:/opt/XMClib/XMC_Peripheral_Library_v2.1.16/XMCLib/src/xmc_usbd.c ****   if (data.b.inepint)
 2467              		.loc 1 919 0
 2468 010e BB7A     		ldrb	r3, [r7, #10]	@ zero_extendqisi2
 2469 0110 03F00403 		and	r3, r3, #4
 2470 0114 DBB2     		uxtb	r3, r3
 2471 0116 002B     		cmp	r3, #0
 2472 0118 02D0     		beq	.L133
 920:/opt/XMClib/XMC_Peripheral_Library_v2.1.16/XMCLib/src/xmc_usbd.c ****   {
 921:/opt/XMClib/XMC_Peripheral_Library_v2.1.16/XMCLib/src/xmc_usbd.c ****     XMC_USBD_lHandleIEPInt(obj);
 2473              		.loc 1 921 0
 2474 011a 7868     		ldr	r0, [r7, #4]
 2475 011c FFF7FEFF 		bl	XMC_USBD_lHandleIEPInt
 2476              	.L133:
 922:/opt/XMClib/XMC_Peripheral_Library_v2.1.16/XMCLib/src/xmc_usbd.c ****   }
 923:/opt/XMClib/XMC_Peripheral_Library_v2.1.16/XMCLib/src/xmc_usbd.c ****   if (data.b.outepintr)
 2477              		.loc 1 923 0
 2478 0120 BB7A     		ldrb	r3, [r7, #10]	@ zero_extendqisi2
 2479 0122 03F00803 		and	r3, r3, #8
 2480 0126 DBB2     		uxtb	r3, r3
 2481 0128 002B     		cmp	r3, #0
 2482 012a 02D0     		beq	.L134
 924:/opt/XMClib/XMC_Peripheral_Library_v2.1.16/XMCLib/src/xmc_usbd.c ****   {
 925:/opt/XMClib/XMC_Peripheral_Library_v2.1.16/XMCLib/src/xmc_usbd.c **** 		XMC_USBD_lHandleOEPInt(obj);
 2483              		.loc 1 925 0
 2484 012c 7868     		ldr	r0, [r7, #4]
 2485 012e FFF7FEFF 		bl	XMC_USBD_lHandleOEPInt
 2486              	.L134:
 926:/opt/XMClib/XMC_Peripheral_Library_v2.1.16/XMCLib/src/xmc_usbd.c ****   }
 927:/opt/XMClib/XMC_Peripheral_Library_v2.1.16/XMCLib/src/xmc_usbd.c **** 	if (data.b.otgintr)
 2487              		.loc 1 927 0
 2488 0132 3B7A     		ldrb	r3, [r7, #8]	@ zero_extendqisi2
 2489 0134 03F00403 		and	r3, r3, #4
 2490 0138 DBB2     		uxtb	r3, r3
 2491 013a 002B     		cmp	r3, #0
 2492 013c 01D0     		beq	.L136
 928:/opt/XMClib/XMC_Peripheral_Library_v2.1.16/XMCLib/src/xmc_usbd.c ****   {
 929:/opt/XMClib/XMC_Peripheral_Library_v2.1.16/XMCLib/src/xmc_usbd.c **** 	  XMC_USBD_lHandleOTGInt();
 2493              		.loc 1 929 0
 2494 013e FFF7FEFF 		bl	XMC_USBD_lHandleOTGInt
 2495              	.L136:
 930:/opt/XMClib/XMC_Peripheral_Library_v2.1.16/XMCLib/src/xmc_usbd.c ****   }
 931:/opt/XMClib/XMC_Peripheral_Library_v2.1.16/XMCLib/src/xmc_usbd.c **** 
 932:/opt/XMClib/XMC_Peripheral_Library_v2.1.16/XMCLib/src/xmc_usbd.c **** }
 2496              		.loc 1 932 0
 2497 0142 00BF     		nop
 2498 0144 1037     		adds	r7, r7, #16
 2499              	.LCFI87:
 2500              		.cfi_def_cfa_offset 8
 2501 0146 BD46     		mov	sp, r7
 2502              	.LCFI88:
 2503              		.cfi_def_cfa_register 13
 2504              		@ sp needed
 2505 0148 80BD     		pop	{r7, pc}
 2506              	.L138:
 2507 014a 00BF     		.align	2
 2508              	.L137:
 2509 014c 00000000 		.word	xmc_device
 2510              		.cfi_endproc
 2511              	.LFE177:
 2513              		.section	.text.XMC_USBD_Enable,"ax",%progbits
 2514              		.align	1
 2515              		.global	XMC_USBD_Enable
 2516              		.syntax unified
 2517              		.thumb
 2518              		.thumb_func
 2519              		.fpu fpv4-sp-d16
 2521              	XMC_USBD_Enable:
 2522              	.LFB178:
 933:/opt/XMClib/XMC_Peripheral_Library_v2.1.16/XMCLib/src/xmc_usbd.c **** 
 934:/opt/XMClib/XMC_Peripheral_Library_v2.1.16/XMCLib/src/xmc_usbd.c **** 
 935:/opt/XMClib/XMC_Peripheral_Library_v2.1.16/XMCLib/src/xmc_usbd.c **** /*******************************************************************************
 936:/opt/XMClib/XMC_Peripheral_Library_v2.1.16/XMCLib/src/xmc_usbd.c ****  * API IMPLEMENTATION
 937:/opt/XMClib/XMC_Peripheral_Library_v2.1.16/XMCLib/src/xmc_usbd.c ****  *******************************************************************************/
 938:/opt/XMClib/XMC_Peripheral_Library_v2.1.16/XMCLib/src/xmc_usbd.c **** /**
 939:/opt/XMClib/XMC_Peripheral_Library_v2.1.16/XMCLib/src/xmc_usbd.c ****  * Enables the USB0 module
 940:/opt/XMClib/XMC_Peripheral_Library_v2.1.16/XMCLib/src/xmc_usbd.c ****  **/
 941:/opt/XMClib/XMC_Peripheral_Library_v2.1.16/XMCLib/src/xmc_usbd.c **** void XMC_USBD_Enable(void) 
 942:/opt/XMClib/XMC_Peripheral_Library_v2.1.16/XMCLib/src/xmc_usbd.c **** {
 2523              		.loc 1 942 0
 2524              		.cfi_startproc
 2525              		@ args = 0, pretend = 0, frame = 0
 2526              		@ frame_needed = 1, uses_anonymous_args = 0
 2527 0000 80B5     		push	{r7, lr}
 2528              	.LCFI89:
 2529              		.cfi_def_cfa_offset 8
 2530              		.cfi_offset 7, -8
 2531              		.cfi_offset 14, -4
 2532 0002 00AF     		add	r7, sp, #0
 2533              	.LCFI90:
 2534              		.cfi_def_cfa_register 7
 943:/opt/XMClib/XMC_Peripheral_Library_v2.1.16/XMCLib/src/xmc_usbd.c **** #if defined(CLOCK_GATING_SUPPORTED)
 944:/opt/XMClib/XMC_Peripheral_Library_v2.1.16/XMCLib/src/xmc_usbd.c ****   XMC_SCU_CLOCK_UngatePeripheralClock(XMC_SCU_PERIPHERAL_CLOCK_USB0);
 945:/opt/XMClib/XMC_Peripheral_Library_v2.1.16/XMCLib/src/xmc_usbd.c **** #endif
 946:/opt/XMClib/XMC_Peripheral_Library_v2.1.16/XMCLib/src/xmc_usbd.c ****   /* Reset and power up */
 947:/opt/XMClib/XMC_Peripheral_Library_v2.1.16/XMCLib/src/xmc_usbd.c ****   XMC_SCU_RESET_DeassertPeripheralReset(XMC_SCU_PERIPHERAL_RESET_USB0);
 2535              		.loc 1 947 0
 2536 0004 0348     		ldr	r0, .L140
 2537 0006 FFF7FEFF 		bl	XMC_SCU_RESET_DeassertPeripheralReset
 948:/opt/XMClib/XMC_Peripheral_Library_v2.1.16/XMCLib/src/xmc_usbd.c ****   XMC_SCU_POWER_EnableUsb();
 2538              		.loc 1 948 0
 2539 000a FFF7FEFF 		bl	XMC_SCU_POWER_EnableUsb
 949:/opt/XMClib/XMC_Peripheral_Library_v2.1.16/XMCLib/src/xmc_usbd.c **** }
 2540              		.loc 1 949 0
 2541 000e 00BF     		nop
 2542 0010 80BD     		pop	{r7, pc}
 2543              	.L141:
 2544 0012 00BF     		.align	2
 2545              	.L140:
 2546 0014 80000020 		.word	536871040
 2547              		.cfi_endproc
 2548              	.LFE178:
 2550              		.section	.text.XMC_USBD_Disable,"ax",%progbits
 2551              		.align	1
 2552              		.global	XMC_USBD_Disable
 2553              		.syntax unified
 2554              		.thumb
 2555              		.thumb_func
 2556              		.fpu fpv4-sp-d16
 2558              	XMC_USBD_Disable:
 2559              	.LFB179:
 950:/opt/XMClib/XMC_Peripheral_Library_v2.1.16/XMCLib/src/xmc_usbd.c **** 
 951:/opt/XMClib/XMC_Peripheral_Library_v2.1.16/XMCLib/src/xmc_usbd.c **** /**
 952:/opt/XMClib/XMC_Peripheral_Library_v2.1.16/XMCLib/src/xmc_usbd.c ****  * Disables the USB0 module
 953:/opt/XMClib/XMC_Peripheral_Library_v2.1.16/XMCLib/src/xmc_usbd.c ****  **/
 954:/opt/XMClib/XMC_Peripheral_Library_v2.1.16/XMCLib/src/xmc_usbd.c **** void XMC_USBD_Disable(void) 
 955:/opt/XMClib/XMC_Peripheral_Library_v2.1.16/XMCLib/src/xmc_usbd.c **** {
 2560              		.loc 1 955 0
 2561              		.cfi_startproc
 2562              		@ args = 0, pretend = 0, frame = 0
 2563              		@ frame_needed = 1, uses_anonymous_args = 0
 2564 0000 80B5     		push	{r7, lr}
 2565              	.LCFI91:
 2566              		.cfi_def_cfa_offset 8
 2567              		.cfi_offset 7, -8
 2568              		.cfi_offset 14, -4
 2569 0002 00AF     		add	r7, sp, #0
 2570              	.LCFI92:
 2571              		.cfi_def_cfa_register 7
 956:/opt/XMClib/XMC_Peripheral_Library_v2.1.16/XMCLib/src/xmc_usbd.c ****   /* Clear Reset and power up */
 957:/opt/XMClib/XMC_Peripheral_Library_v2.1.16/XMCLib/src/xmc_usbd.c ****   XMC_SCU_RESET_AssertPeripheralReset(XMC_SCU_PERIPHERAL_RESET_USB0);
 2572              		.loc 1 957 0
 2573 0004 0348     		ldr	r0, .L143
 2574 0006 FFF7FEFF 		bl	XMC_SCU_RESET_AssertPeripheralReset
 958:/opt/XMClib/XMC_Peripheral_Library_v2.1.16/XMCLib/src/xmc_usbd.c **** #if defined(CLOCK_GATING_SUPPORTED)
 959:/opt/XMClib/XMC_Peripheral_Library_v2.1.16/XMCLib/src/xmc_usbd.c ****   XMC_SCU_CLOCK_GatePeripheralClock(XMC_SCU_PERIPHERAL_CLOCK_USB0);
 960:/opt/XMClib/XMC_Peripheral_Library_v2.1.16/XMCLib/src/xmc_usbd.c **** #endif
 961:/opt/XMClib/XMC_Peripheral_Library_v2.1.16/XMCLib/src/xmc_usbd.c ****   XMC_SCU_POWER_DisableUsb();
 2575              		.loc 1 961 0
 2576 000a FFF7FEFF 		bl	XMC_SCU_POWER_DisableUsb
 962:/opt/XMClib/XMC_Peripheral_Library_v2.1.16/XMCLib/src/xmc_usbd.c **** }
 2577              		.loc 1 962 0
 2578 000e 00BF     		nop
 2579 0010 80BD     		pop	{r7, pc}
 2580              	.L144:
 2581 0012 00BF     		.align	2
 2582              	.L143:
 2583 0014 80000020 		.word	536871040
 2584              		.cfi_endproc
 2585              	.LFE179:
 2587              		.section	.text.XMC_USBD_ClearEvent,"ax",%progbits
 2588              		.align	1
 2589              		.global	XMC_USBD_ClearEvent
 2590              		.syntax unified
 2591              		.thumb
 2592              		.thumb_func
 2593              		.fpu fpv4-sp-d16
 2595              	XMC_USBD_ClearEvent:
 2596              	.LFB180:
 963:/opt/XMClib/XMC_Peripheral_Library_v2.1.16/XMCLib/src/xmc_usbd.c **** 
 964:/opt/XMClib/XMC_Peripheral_Library_v2.1.16/XMCLib/src/xmc_usbd.c **** /**
 965:/opt/XMClib/XMC_Peripheral_Library_v2.1.16/XMCLib/src/xmc_usbd.c ****  * Clear the USB device event
 966:/opt/XMClib/XMC_Peripheral_Library_v2.1.16/XMCLib/src/xmc_usbd.c ****  **/
 967:/opt/XMClib/XMC_Peripheral_Library_v2.1.16/XMCLib/src/xmc_usbd.c **** void XMC_USBD_ClearEvent(const XMC_USBD_EVENT_t event) 
 968:/opt/XMClib/XMC_Peripheral_Library_v2.1.16/XMCLib/src/xmc_usbd.c **** {
 2597              		.loc 1 968 0
 2598              		.cfi_startproc
 2599              		@ args = 0, pretend = 0, frame = 16
 2600              		@ frame_needed = 1, uses_anonymous_args = 0
 2601              		@ link register save eliminated.
 2602 0000 80B4     		push	{r7}
 2603              	.LCFI93:
 2604              		.cfi_def_cfa_offset 4
 2605              		.cfi_offset 7, -4
 2606 0002 85B0     		sub	sp, sp, #20
 2607              	.LCFI94:
 2608              		.cfi_def_cfa_offset 24
 2609 0004 00AF     		add	r7, sp, #0
 2610              	.LCFI95:
 2611              		.cfi_def_cfa_register 7
 2612 0006 0346     		mov	r3, r0
 2613 0008 FB71     		strb	r3, [r7, #7]
 969:/opt/XMClib/XMC_Peripheral_Library_v2.1.16/XMCLib/src/xmc_usbd.c ****   gintsts_data_t clear;
 970:/opt/XMClib/XMC_Peripheral_Library_v2.1.16/XMCLib/src/xmc_usbd.c ****   clear.d32 = 0U;
 2614              		.loc 1 970 0
 2615 000a 0023     		movs	r3, #0
 2616 000c FB60     		str	r3, [r7, #12]
 971:/opt/XMClib/XMC_Peripheral_Library_v2.1.16/XMCLib/src/xmc_usbd.c ****   switch(event)
 2617              		.loc 1 971 0
 2618 000e FB79     		ldrb	r3, [r7, #7]	@ zero_extendqisi2
 2619 0010 0D2B     		cmp	r3, #13
 2620 0012 4CD8     		bhi	.L158
 2621 0014 01A2     		adr	r2, .L148
 2622 0016 52F823F0 		ldr	pc, [r2, r3, lsl #2]
 2623 001a 00BF     		.p2align 2
 2624              	.L148:
 2625 001c 55000000 		.word	.L147+1
 2626 0020 AF000000 		.word	.L158+1
 2627 0024 AF000000 		.word	.L158+1
 2628 0028 AF000000 		.word	.L158+1
 2629 002c 5F000000 		.word	.L149+1
 2630 0030 AF000000 		.word	.L158+1
 2631 0034 69000000 		.word	.L150+1
 2632 0038 73000000 		.word	.L151+1
 2633 003c 7D000000 		.word	.L152+1
 2634 0040 87000000 		.word	.L153+1
 2635 0044 91000000 		.word	.L154+1
 2636 0048 9B000000 		.word	.L155+1
 2637 004c AF000000 		.word	.L158+1
 2638 0050 A5000000 		.word	.L156+1
 2639              		.p2align 1
 2640              	.L147:
 972:/opt/XMClib/XMC_Peripheral_Library_v2.1.16/XMCLib/src/xmc_usbd.c ****   {
 973:/opt/XMClib/XMC_Peripheral_Library_v2.1.16/XMCLib/src/xmc_usbd.c ****     case (XMC_USBD_EVENT_POWER_ON):
 974:/opt/XMClib/XMC_Peripheral_Library_v2.1.16/XMCLib/src/xmc_usbd.c **** 	  clear.b.sessreqintr = 1U;
 2641              		.loc 1 974 0
 2642 0054 FB7B     		ldrb	r3, [r7, #15]
 2643 0056 43F04003 		orr	r3, r3, #64
 2644 005a FB73     		strb	r3, [r7, #15]
 975:/opt/XMClib/XMC_Peripheral_Library_v2.1.16/XMCLib/src/xmc_usbd.c **** 	  break;
 2645              		.loc 1 975 0
 2646 005c 28E0     		b	.L157
 2647              	.L149:
 976:/opt/XMClib/XMC_Peripheral_Library_v2.1.16/XMCLib/src/xmc_usbd.c ****     case (XMC_USBD_EVENT_RESET):
 977:/opt/XMClib/XMC_Peripheral_Library_v2.1.16/XMCLib/src/xmc_usbd.c **** 	  clear.b.usbreset = 1U;
 2648              		.loc 1 977 0
 2649 005e 7B7B     		ldrb	r3, [r7, #13]
 2650 0060 43F01003 		orr	r3, r3, #16
 2651 0064 7B73     		strb	r3, [r7, #13]
 978:/opt/XMClib/XMC_Peripheral_Library_v2.1.16/XMCLib/src/xmc_usbd.c **** 	  break;
 2652              		.loc 1 978 0
 2653 0066 23E0     		b	.L157
 2654              	.L150:
 979:/opt/XMClib/XMC_Peripheral_Library_v2.1.16/XMCLib/src/xmc_usbd.c ****     case (XMC_USBD_EVENT_SUSPEND):
 980:/opt/XMClib/XMC_Peripheral_Library_v2.1.16/XMCLib/src/xmc_usbd.c **** 	  clear.b.usbsuspend = 1U;
 2655              		.loc 1 980 0
 2656 0068 7B7B     		ldrb	r3, [r7, #13]
 2657 006a 43F00803 		orr	r3, r3, #8
 2658 006e 7B73     		strb	r3, [r7, #13]
 981:/opt/XMClib/XMC_Peripheral_Library_v2.1.16/XMCLib/src/xmc_usbd.c **** 	  break;
 2659              		.loc 1 981 0
 2660 0070 1EE0     		b	.L157
 2661              	.L151:
 982:/opt/XMClib/XMC_Peripheral_Library_v2.1.16/XMCLib/src/xmc_usbd.c ****     case (XMC_USBD_EVENT_RESUME):
 983:/opt/XMClib/XMC_Peripheral_Library_v2.1.16/XMCLib/src/xmc_usbd.c **** 	  clear.b.wkupintr = 1U;
 2662              		.loc 1 983 0
 2663 0072 FB7B     		ldrb	r3, [r7, #15]
 2664 0074 43F08003 		orr	r3, r3, #128
 2665 0078 FB73     		strb	r3, [r7, #15]
 984:/opt/XMClib/XMC_Peripheral_Library_v2.1.16/XMCLib/src/xmc_usbd.c **** 	  break;
 2666              		.loc 1 984 0
 2667 007a 19E0     		b	.L157
 2668              	.L152:
 985:/opt/XMClib/XMC_Peripheral_Library_v2.1.16/XMCLib/src/xmc_usbd.c ****     case (XMC_USBD_EVENT_REMOTE_WAKEUP):
 986:/opt/XMClib/XMC_Peripheral_Library_v2.1.16/XMCLib/src/xmc_usbd.c **** 	  clear.b.wkupintr = 1U;
 2669              		.loc 1 986 0
 2670 007c FB7B     		ldrb	r3, [r7, #15]
 2671 007e 43F08003 		orr	r3, r3, #128
 2672 0082 FB73     		strb	r3, [r7, #15]
 987:/opt/XMClib/XMC_Peripheral_Library_v2.1.16/XMCLib/src/xmc_usbd.c **** 	  break;
 2673              		.loc 1 987 0
 2674 0084 14E0     		b	.L157
 2675              	.L153:
 988:/opt/XMClib/XMC_Peripheral_Library_v2.1.16/XMCLib/src/xmc_usbd.c ****     case (XMC_USBD_EVENT_SOF):
 989:/opt/XMClib/XMC_Peripheral_Library_v2.1.16/XMCLib/src/xmc_usbd.c **** 	  clear.b.sofintr = 1U;
 2676              		.loc 1 989 0
 2677 0086 3B7B     		ldrb	r3, [r7, #12]
 2678 0088 43F00803 		orr	r3, r3, #8
 2679 008c 3B73     		strb	r3, [r7, #12]
 990:/opt/XMClib/XMC_Peripheral_Library_v2.1.16/XMCLib/src/xmc_usbd.c **** 	  break;
 2680              		.loc 1 990 0
 2681 008e 0FE0     		b	.L157
 2682              	.L154:
 991:/opt/XMClib/XMC_Peripheral_Library_v2.1.16/XMCLib/src/xmc_usbd.c ****     case (XMC_USBD_EVENT_EARLYSUSPEND):
 992:/opt/XMClib/XMC_Peripheral_Library_v2.1.16/XMCLib/src/xmc_usbd.c **** 	  clear.b.erlysuspend = 1U;
 2683              		.loc 1 992 0
 2684 0090 7B7B     		ldrb	r3, [r7, #13]
 2685 0092 43F00403 		orr	r3, r3, #4
 2686 0096 7B73     		strb	r3, [r7, #13]
 993:/opt/XMClib/XMC_Peripheral_Library_v2.1.16/XMCLib/src/xmc_usbd.c **** 	  break;
 2687              		.loc 1 993 0
 2688 0098 0AE0     		b	.L157
 2689              	.L155:
 994:/opt/XMClib/XMC_Peripheral_Library_v2.1.16/XMCLib/src/xmc_usbd.c ****     case (XMC_USBD_EVENT_ENUMDONE):
 995:/opt/XMClib/XMC_Peripheral_Library_v2.1.16/XMCLib/src/xmc_usbd.c **** 	  clear.b.enumdone = 1U;
 2690              		.loc 1 995 0
 2691 009a 7B7B     		ldrb	r3, [r7, #13]
 2692 009c 43F02003 		orr	r3, r3, #32
 2693 00a0 7B73     		strb	r3, [r7, #13]
 996:/opt/XMClib/XMC_Peripheral_Library_v2.1.16/XMCLib/src/xmc_usbd.c **** 	  break;
 2694              		.loc 1 996 0
 2695 00a2 05E0     		b	.L157
 2696              	.L156:
 997:/opt/XMClib/XMC_Peripheral_Library_v2.1.16/XMCLib/src/xmc_usbd.c ****     case (XMC_USBD_EVENT_OUTEP):
 998:/opt/XMClib/XMC_Peripheral_Library_v2.1.16/XMCLib/src/xmc_usbd.c **** 	  clear.b.outepintr = 1U;
 2697              		.loc 1 998 0
 2698 00a4 BB7B     		ldrb	r3, [r7, #14]
 2699 00a6 43F00803 		orr	r3, r3, #8
 2700 00aa BB73     		strb	r3, [r7, #14]
 999:/opt/XMClib/XMC_Peripheral_Library_v2.1.16/XMCLib/src/xmc_usbd.c **** 	  break;
 2701              		.loc 1 999 0
 2702 00ac 00E0     		b	.L157
 2703              	.L158:
1000:/opt/XMClib/XMC_Peripheral_Library_v2.1.16/XMCLib/src/xmc_usbd.c **** 		default:
1001:/opt/XMClib/XMC_Peripheral_Library_v2.1.16/XMCLib/src/xmc_usbd.c **** 		break;
 2704              		.loc 1 1001 0
 2705 00ae 00BF     		nop
 2706              	.L157:
1002:/opt/XMClib/XMC_Peripheral_Library_v2.1.16/XMCLib/src/xmc_usbd.c **** 	}
1003:/opt/XMClib/XMC_Peripheral_Library_v2.1.16/XMCLib/src/xmc_usbd.c **** 	xmc_device.global_register->gintsts = clear.d32;
 2707              		.loc 1 1003 0
 2708 00b0 054B     		ldr	r3, .L159
 2709 00b2 D3F8A031 		ldr	r3, [r3, #416]
 2710 00b6 FA68     		ldr	r2, [r7, #12]
 2711 00b8 5A61     		str	r2, [r3, #20]
1004:/opt/XMClib/XMC_Peripheral_Library_v2.1.16/XMCLib/src/xmc_usbd.c **** }
 2712              		.loc 1 1004 0
 2713 00ba 00BF     		nop
 2714 00bc 1437     		adds	r7, r7, #20
 2715              	.LCFI96:
 2716              		.cfi_def_cfa_offset 4
 2717 00be BD46     		mov	sp, r7
 2718              	.LCFI97:
 2719              		.cfi_def_cfa_register 13
 2720              		@ sp needed
 2721 00c0 5DF8047B 		ldr	r7, [sp], #4
 2722              	.LCFI98:
 2723              		.cfi_restore 7
 2724              		.cfi_def_cfa_offset 0
 2725 00c4 7047     		bx	lr
 2726              	.L160:
 2727 00c6 00BF     		.align	2
 2728              	.L159:
 2729 00c8 00000000 		.word	xmc_device
 2730              		.cfi_endproc
 2731              	.LFE180:
 2733              		.section	.text.XMC_USBD_lClearEventOTG,"ax",%progbits
 2734              		.align	1
 2735              		.syntax unified
 2736              		.thumb
 2737              		.thumb_func
 2738              		.fpu fpv4-sp-d16
 2740              	XMC_USBD_lClearEventOTG:
 2741              	.LFB181:
1005:/opt/XMClib/XMC_Peripheral_Library_v2.1.16/XMCLib/src/xmc_usbd.c **** 
1006:/opt/XMClib/XMC_Peripheral_Library_v2.1.16/XMCLib/src/xmc_usbd.c **** /**
1007:/opt/XMClib/XMC_Peripheral_Library_v2.1.16/XMCLib/src/xmc_usbd.c ****  * Clear the USB OTG events
1008:/opt/XMClib/XMC_Peripheral_Library_v2.1.16/XMCLib/src/xmc_usbd.c ****  **/
1009:/opt/XMClib/XMC_Peripheral_Library_v2.1.16/XMCLib/src/xmc_usbd.c **** static void XMC_USBD_lClearEventOTG(uint32_t event)
1010:/opt/XMClib/XMC_Peripheral_Library_v2.1.16/XMCLib/src/xmc_usbd.c **** {
 2742              		.loc 1 1010 0
 2743              		.cfi_startproc
 2744              		@ args = 0, pretend = 0, frame = 16
 2745              		@ frame_needed = 1, uses_anonymous_args = 0
 2746              		@ link register save eliminated.
 2747 0000 80B4     		push	{r7}
 2748              	.LCFI99:
 2749              		.cfi_def_cfa_offset 4
 2750              		.cfi_offset 7, -4
 2751 0002 85B0     		sub	sp, sp, #20
 2752              	.LCFI100:
 2753              		.cfi_def_cfa_offset 24
 2754 0004 00AF     		add	r7, sp, #0
 2755              	.LCFI101:
 2756              		.cfi_def_cfa_register 7
 2757 0006 7860     		str	r0, [r7, #4]
1011:/opt/XMClib/XMC_Peripheral_Library_v2.1.16/XMCLib/src/xmc_usbd.c ****   gotgint_data_t clear = { .d32 = 0U};
 2758              		.loc 1 1011 0
 2759 0008 0023     		movs	r3, #0
 2760 000a FB60     		str	r3, [r7, #12]
1012:/opt/XMClib/XMC_Peripheral_Library_v2.1.16/XMCLib/src/xmc_usbd.c ****   clear.d32 = event;
 2761              		.loc 1 1012 0
 2762 000c 7B68     		ldr	r3, [r7, #4]
 2763 000e FB60     		str	r3, [r7, #12]
1013:/opt/XMClib/XMC_Peripheral_Library_v2.1.16/XMCLib/src/xmc_usbd.c ****   xmc_device.global_register->gotgint = clear.d32;
 2764              		.loc 1 1013 0
 2765 0010 054B     		ldr	r3, .L162
 2766 0012 D3F8A031 		ldr	r3, [r3, #416]
 2767 0016 FA68     		ldr	r2, [r7, #12]
 2768 0018 5A60     		str	r2, [r3, #4]
1014:/opt/XMClib/XMC_Peripheral_Library_v2.1.16/XMCLib/src/xmc_usbd.c **** }
 2769              		.loc 1 1014 0
 2770 001a 00BF     		nop
 2771 001c 1437     		adds	r7, r7, #20
 2772              	.LCFI102:
 2773              		.cfi_def_cfa_offset 4
 2774 001e BD46     		mov	sp, r7
 2775              	.LCFI103:
 2776              		.cfi_def_cfa_register 13
 2777              		@ sp needed
 2778 0020 5DF8047B 		ldr	r7, [sp], #4
 2779              	.LCFI104:
 2780              		.cfi_restore 7
 2781              		.cfi_def_cfa_offset 0
 2782 0024 7047     		bx	lr
 2783              	.L163:
 2784 0026 00BF     		.align	2
 2785              	.L162:
 2786 0028 00000000 		.word	xmc_device
 2787              		.cfi_endproc
 2788              	.LFE181:
 2790              		.section	.text.XMC_USBD_ClearEventINEP,"ax",%progbits
 2791              		.align	1
 2792              		.global	XMC_USBD_ClearEventINEP
 2793              		.syntax unified
 2794              		.thumb
 2795              		.thumb_func
 2796              		.fpu fpv4-sp-d16
 2798              	XMC_USBD_ClearEventINEP:
 2799              	.LFB182:
1015:/opt/XMClib/XMC_Peripheral_Library_v2.1.16/XMCLib/src/xmc_usbd.c **** 
1016:/opt/XMClib/XMC_Peripheral_Library_v2.1.16/XMCLib/src/xmc_usbd.c **** /**
1017:/opt/XMClib/XMC_Peripheral_Library_v2.1.16/XMCLib/src/xmc_usbd.c ****  * Clear the USB IN EP events
1018:/opt/XMClib/XMC_Peripheral_Library_v2.1.16/XMCLib/src/xmc_usbd.c ****  **/
1019:/opt/XMClib/XMC_Peripheral_Library_v2.1.16/XMCLib/src/xmc_usbd.c **** void XMC_USBD_ClearEventINEP(uint32_t event,const uint8_t ep_num)
1020:/opt/XMClib/XMC_Peripheral_Library_v2.1.16/XMCLib/src/xmc_usbd.c **** {
 2800              		.loc 1 1020 0
 2801              		.cfi_startproc
 2802              		@ args = 0, pretend = 0, frame = 16
 2803              		@ frame_needed = 1, uses_anonymous_args = 0
 2804              		@ link register save eliminated.
 2805 0000 80B4     		push	{r7}
 2806              	.LCFI105:
 2807              		.cfi_def_cfa_offset 4
 2808              		.cfi_offset 7, -4
 2809 0002 85B0     		sub	sp, sp, #20
 2810              	.LCFI106:
 2811              		.cfi_def_cfa_offset 24
 2812 0004 00AF     		add	r7, sp, #0
 2813              	.LCFI107:
 2814              		.cfi_def_cfa_register 7
 2815 0006 7860     		str	r0, [r7, #4]
 2816 0008 0B46     		mov	r3, r1
 2817 000a FB70     		strb	r3, [r7, #3]
1021:/opt/XMClib/XMC_Peripheral_Library_v2.1.16/XMCLib/src/xmc_usbd.c ****   diepint_data_t clear;
1022:/opt/XMClib/XMC_Peripheral_Library_v2.1.16/XMCLib/src/xmc_usbd.c ****   clear.d32 = event;
 2818              		.loc 1 1022 0
 2819 000c 7B68     		ldr	r3, [r7, #4]
 2820 000e FB60     		str	r3, [r7, #12]
1023:/opt/XMClib/XMC_Peripheral_Library_v2.1.16/XMCLib/src/xmc_usbd.c ****   xmc_device.endpoint_in_register[ep_num]->diepint = clear.d32;
 2821              		.loc 1 1023 0
 2822 0010 FB78     		ldrb	r3, [r7, #3]	@ zero_extendqisi2
 2823 0012 064A     		ldr	r2, .L165
 2824 0014 6A33     		adds	r3, r3, #106
 2825 0016 52F82330 		ldr	r3, [r2, r3, lsl #2]
 2826 001a FA68     		ldr	r2, [r7, #12]
 2827 001c 9A60     		str	r2, [r3, #8]
1024:/opt/XMClib/XMC_Peripheral_Library_v2.1.16/XMCLib/src/xmc_usbd.c **** }
 2828              		.loc 1 1024 0
 2829 001e 00BF     		nop
 2830 0020 1437     		adds	r7, r7, #20
 2831              	.LCFI108:
 2832              		.cfi_def_cfa_offset 4
 2833 0022 BD46     		mov	sp, r7
 2834              	.LCFI109:
 2835              		.cfi_def_cfa_register 13
 2836              		@ sp needed
 2837 0024 5DF8047B 		ldr	r7, [sp], #4
 2838              	.LCFI110:
 2839              		.cfi_restore 7
 2840              		.cfi_def_cfa_offset 0
 2841 0028 7047     		bx	lr
 2842              	.L166:
 2843 002a 00BF     		.align	2
 2844              	.L165:
 2845 002c 00000000 		.word	xmc_device
 2846              		.cfi_endproc
 2847              	.LFE182:
 2849              		.section	.text.XMC_USBD_ClearEventOUTEP,"ax",%progbits
 2850              		.align	1
 2851              		.global	XMC_USBD_ClearEventOUTEP
 2852              		.syntax unified
 2853              		.thumb
 2854              		.thumb_func
 2855              		.fpu fpv4-sp-d16
 2857              	XMC_USBD_ClearEventOUTEP:
 2858              	.LFB183:
1025:/opt/XMClib/XMC_Peripheral_Library_v2.1.16/XMCLib/src/xmc_usbd.c **** 
1026:/opt/XMClib/XMC_Peripheral_Library_v2.1.16/XMCLib/src/xmc_usbd.c **** /**
1027:/opt/XMClib/XMC_Peripheral_Library_v2.1.16/XMCLib/src/xmc_usbd.c ****  * Clear the USB OUT EP events
1028:/opt/XMClib/XMC_Peripheral_Library_v2.1.16/XMCLib/src/xmc_usbd.c ****  **/
1029:/opt/XMClib/XMC_Peripheral_Library_v2.1.16/XMCLib/src/xmc_usbd.c **** void XMC_USBD_ClearEventOUTEP(uint32_t event,const uint8_t ep_num)
1030:/opt/XMClib/XMC_Peripheral_Library_v2.1.16/XMCLib/src/xmc_usbd.c **** {
 2859              		.loc 1 1030 0
 2860              		.cfi_startproc
 2861              		@ args = 0, pretend = 0, frame = 16
 2862              		@ frame_needed = 1, uses_anonymous_args = 0
 2863              		@ link register save eliminated.
 2864 0000 80B4     		push	{r7}
 2865              	.LCFI111:
 2866              		.cfi_def_cfa_offset 4
 2867              		.cfi_offset 7, -4
 2868 0002 85B0     		sub	sp, sp, #20
 2869              	.LCFI112:
 2870              		.cfi_def_cfa_offset 24
 2871 0004 00AF     		add	r7, sp, #0
 2872              	.LCFI113:
 2873              		.cfi_def_cfa_register 7
 2874 0006 7860     		str	r0, [r7, #4]
 2875 0008 0B46     		mov	r3, r1
 2876 000a FB70     		strb	r3, [r7, #3]
1031:/opt/XMClib/XMC_Peripheral_Library_v2.1.16/XMCLib/src/xmc_usbd.c ****   doepint_data_t clear;
1032:/opt/XMClib/XMC_Peripheral_Library_v2.1.16/XMCLib/src/xmc_usbd.c ****   clear.d32 = event;
 2877              		.loc 1 1032 0
 2878 000c 7B68     		ldr	r3, [r7, #4]
 2879 000e FB60     		str	r3, [r7, #12]
1033:/opt/XMClib/XMC_Peripheral_Library_v2.1.16/XMCLib/src/xmc_usbd.c ****   xmc_device.endpoint_out_register[ep_num]->doepint = clear.d32;
 2880              		.loc 1 1033 0
 2881 0010 FB78     		ldrb	r3, [r7, #3]	@ zero_extendqisi2
 2882 0012 064A     		ldr	r2, .L168
 2883 0014 7033     		adds	r3, r3, #112
 2884 0016 9B00     		lsls	r3, r3, #2
 2885 0018 1344     		add	r3, r3, r2
 2886 001a 5B68     		ldr	r3, [r3, #4]
 2887 001c FA68     		ldr	r2, [r7, #12]
 2888 001e 9A60     		str	r2, [r3, #8]
1034:/opt/XMClib/XMC_Peripheral_Library_v2.1.16/XMCLib/src/xmc_usbd.c **** }
 2889              		.loc 1 1034 0
 2890 0020 00BF     		nop
 2891 0022 1437     		adds	r7, r7, #20
 2892              	.LCFI114:
 2893              		.cfi_def_cfa_offset 4
 2894 0024 BD46     		mov	sp, r7
 2895              	.LCFI115:
 2896              		.cfi_def_cfa_register 13
 2897              		@ sp needed
 2898 0026 5DF8047B 		ldr	r7, [sp], #4
 2899              	.LCFI116:
 2900              		.cfi_restore 7
 2901              		.cfi_def_cfa_offset 0
 2902 002a 7047     		bx	lr
 2903              	.L169:
 2904              		.align	2
 2905              	.L168:
 2906 002c 00000000 		.word	xmc_device
 2907              		.cfi_endproc
 2908              	.LFE183:
 2910              		.section	.text.XMC_USBD_EnableEventOUTEP,"ax",%progbits
 2911              		.align	1
 2912              		.global	XMC_USBD_EnableEventOUTEP
 2913              		.syntax unified
 2914              		.thumb
 2915              		.thumb_func
 2916              		.fpu fpv4-sp-d16
 2918              	XMC_USBD_EnableEventOUTEP:
 2919              	.LFB184:
1035:/opt/XMClib/XMC_Peripheral_Library_v2.1.16/XMCLib/src/xmc_usbd.c **** 
1036:/opt/XMClib/XMC_Peripheral_Library_v2.1.16/XMCLib/src/xmc_usbd.c **** /**
1037:/opt/XMClib/XMC_Peripheral_Library_v2.1.16/XMCLib/src/xmc_usbd.c ****  * Enable the USB OUT EP events
1038:/opt/XMClib/XMC_Peripheral_Library_v2.1.16/XMCLib/src/xmc_usbd.c ****  **/
1039:/opt/XMClib/XMC_Peripheral_Library_v2.1.16/XMCLib/src/xmc_usbd.c **** void XMC_USBD_EnableEventOUTEP(uint32_t event)
1040:/opt/XMClib/XMC_Peripheral_Library_v2.1.16/XMCLib/src/xmc_usbd.c **** {
 2920              		.loc 1 1040 0
 2921              		.cfi_startproc
 2922              		@ args = 0, pretend = 0, frame = 16
 2923              		@ frame_needed = 1, uses_anonymous_args = 0
 2924              		@ link register save eliminated.
 2925 0000 80B4     		push	{r7}
 2926              	.LCFI117:
 2927              		.cfi_def_cfa_offset 4
 2928              		.cfi_offset 7, -4
 2929 0002 85B0     		sub	sp, sp, #20
 2930              	.LCFI118:
 2931              		.cfi_def_cfa_offset 24
 2932 0004 00AF     		add	r7, sp, #0
 2933              	.LCFI119:
 2934              		.cfi_def_cfa_register 7
 2935 0006 7860     		str	r0, [r7, #4]
1041:/opt/XMClib/XMC_Peripheral_Library_v2.1.16/XMCLib/src/xmc_usbd.c **** 	doepint_data_t doepint;
1042:/opt/XMClib/XMC_Peripheral_Library_v2.1.16/XMCLib/src/xmc_usbd.c **** 	doepint.d32 = event;
 2936              		.loc 1 1042 0
 2937 0008 7B68     		ldr	r3, [r7, #4]
 2938 000a FB60     		str	r3, [r7, #12]
1043:/opt/XMClib/XMC_Peripheral_Library_v2.1.16/XMCLib/src/xmc_usbd.c **** 	xmc_device.device_register->doepmsk |= doepint.d32;
 2939              		.loc 1 1043 0
 2940 000c 074B     		ldr	r3, .L171
 2941 000e D3F8A431 		ldr	r3, [r3, #420]
 2942 0012 5969     		ldr	r1, [r3, #20]
 2943 0014 FA68     		ldr	r2, [r7, #12]
 2944 0016 054B     		ldr	r3, .L171
 2945 0018 D3F8A431 		ldr	r3, [r3, #420]
 2946 001c 0A43     		orrs	r2, r2, r1
 2947 001e 5A61     		str	r2, [r3, #20]
1044:/opt/XMClib/XMC_Peripheral_Library_v2.1.16/XMCLib/src/xmc_usbd.c **** }
 2948              		.loc 1 1044 0
 2949 0020 00BF     		nop
 2950 0022 1437     		adds	r7, r7, #20
 2951              	.LCFI120:
 2952              		.cfi_def_cfa_offset 4
 2953 0024 BD46     		mov	sp, r7
 2954              	.LCFI121:
 2955              		.cfi_def_cfa_register 13
 2956              		@ sp needed
 2957 0026 5DF8047B 		ldr	r7, [sp], #4
 2958              	.LCFI122:
 2959              		.cfi_restore 7
 2960              		.cfi_def_cfa_offset 0
 2961 002a 7047     		bx	lr
 2962              	.L172:
 2963              		.align	2
 2964              	.L171:
 2965 002c 00000000 		.word	xmc_device
 2966              		.cfi_endproc
 2967              	.LFE184:
 2969              		.section	.text.XMC_USBD_EnableEventINEP,"ax",%progbits
 2970              		.align	1
 2971              		.global	XMC_USBD_EnableEventINEP
 2972              		.syntax unified
 2973              		.thumb
 2974              		.thumb_func
 2975              		.fpu fpv4-sp-d16
 2977              	XMC_USBD_EnableEventINEP:
 2978              	.LFB185:
1045:/opt/XMClib/XMC_Peripheral_Library_v2.1.16/XMCLib/src/xmc_usbd.c **** 
1046:/opt/XMClib/XMC_Peripheral_Library_v2.1.16/XMCLib/src/xmc_usbd.c **** /**
1047:/opt/XMClib/XMC_Peripheral_Library_v2.1.16/XMCLib/src/xmc_usbd.c ****  * Enable the USB IN EP events
1048:/opt/XMClib/XMC_Peripheral_Library_v2.1.16/XMCLib/src/xmc_usbd.c ****  **/
1049:/opt/XMClib/XMC_Peripheral_Library_v2.1.16/XMCLib/src/xmc_usbd.c **** void XMC_USBD_EnableEventINEP(uint32_t event)
1050:/opt/XMClib/XMC_Peripheral_Library_v2.1.16/XMCLib/src/xmc_usbd.c **** {
 2979              		.loc 1 1050 0
 2980              		.cfi_startproc
 2981              		@ args = 0, pretend = 0, frame = 16
 2982              		@ frame_needed = 1, uses_anonymous_args = 0
 2983              		@ link register save eliminated.
 2984 0000 80B4     		push	{r7}
 2985              	.LCFI123:
 2986              		.cfi_def_cfa_offset 4
 2987              		.cfi_offset 7, -4
 2988 0002 85B0     		sub	sp, sp, #20
 2989              	.LCFI124:
 2990              		.cfi_def_cfa_offset 24
 2991 0004 00AF     		add	r7, sp, #0
 2992              	.LCFI125:
 2993              		.cfi_def_cfa_register 7
 2994 0006 7860     		str	r0, [r7, #4]
1051:/opt/XMClib/XMC_Peripheral_Library_v2.1.16/XMCLib/src/xmc_usbd.c **** 	diepint_data_t diepint;
1052:/opt/XMClib/XMC_Peripheral_Library_v2.1.16/XMCLib/src/xmc_usbd.c **** 	diepint.d32 = event;
 2995              		.loc 1 1052 0
 2996 0008 7B68     		ldr	r3, [r7, #4]
 2997 000a FB60     		str	r3, [r7, #12]
1053:/opt/XMClib/XMC_Peripheral_Library_v2.1.16/XMCLib/src/xmc_usbd.c **** 	xmc_device.device_register->diepmsk |= diepint.d32;
 2998              		.loc 1 1053 0
 2999 000c 074B     		ldr	r3, .L174
 3000 000e D3F8A431 		ldr	r3, [r3, #420]
 3001 0012 1969     		ldr	r1, [r3, #16]
 3002 0014 FA68     		ldr	r2, [r7, #12]
 3003 0016 054B     		ldr	r3, .L174
 3004 0018 D3F8A431 		ldr	r3, [r3, #420]
 3005 001c 0A43     		orrs	r2, r2, r1
 3006 001e 1A61     		str	r2, [r3, #16]
1054:/opt/XMClib/XMC_Peripheral_Library_v2.1.16/XMCLib/src/xmc_usbd.c **** }
 3007              		.loc 1 1054 0
 3008 0020 00BF     		nop
 3009 0022 1437     		adds	r7, r7, #20
 3010              	.LCFI126:
 3011              		.cfi_def_cfa_offset 4
 3012 0024 BD46     		mov	sp, r7
 3013              	.LCFI127:
 3014              		.cfi_def_cfa_register 13
 3015              		@ sp needed
 3016 0026 5DF8047B 		ldr	r7, [sp], #4
 3017              	.LCFI128:
 3018              		.cfi_restore 7
 3019              		.cfi_def_cfa_offset 0
 3020 002a 7047     		bx	lr
 3021              	.L175:
 3022              		.align	2
 3023              	.L174:
 3024 002c 00000000 		.word	xmc_device
 3025              		.cfi_endproc
 3026              	.LFE185:
 3028              		.section	.text.XMC_USBD_GetCapabilities,"ax",%progbits
 3029              		.align	1
 3030              		.global	XMC_USBD_GetCapabilities
 3031              		.syntax unified
 3032              		.thumb
 3033              		.thumb_func
 3034              		.fpu fpv4-sp-d16
 3036              	XMC_USBD_GetCapabilities:
 3037              	.LFB186:
1055:/opt/XMClib/XMC_Peripheral_Library_v2.1.16/XMCLib/src/xmc_usbd.c **** 
1056:/opt/XMClib/XMC_Peripheral_Library_v2.1.16/XMCLib/src/xmc_usbd.c **** /**
1057:/opt/XMClib/XMC_Peripheral_Library_v2.1.16/XMCLib/src/xmc_usbd.c ****  * Gets the USB device capabilities
1058:/opt/XMClib/XMC_Peripheral_Library_v2.1.16/XMCLib/src/xmc_usbd.c ****  **/
1059:/opt/XMClib/XMC_Peripheral_Library_v2.1.16/XMCLib/src/xmc_usbd.c **** XMC_USBD_CAPABILITIES_t XMC_USBD_GetCapabilities()
1060:/opt/XMClib/XMC_Peripheral_Library_v2.1.16/XMCLib/src/xmc_usbd.c **** {
 3038              		.loc 1 1060 0
 3039              		.cfi_startproc
 3040              		@ args = 0, pretend = 0, frame = 8
 3041              		@ frame_needed = 1, uses_anonymous_args = 0
 3042              		@ link register save eliminated.
 3043 0000 80B4     		push	{r7}
 3044              	.LCFI129:
 3045              		.cfi_def_cfa_offset 4
 3046              		.cfi_offset 7, -4
 3047 0002 83B0     		sub	sp, sp, #12
 3048              	.LCFI130:
 3049              		.cfi_def_cfa_offset 16
 3050 0004 00AF     		add	r7, sp, #0
 3051              	.LCFI131:
 3052              		.cfi_def_cfa_register 7
1061:/opt/XMClib/XMC_Peripheral_Library_v2.1.16/XMCLib/src/xmc_usbd.c ****   XMC_USBD_CAPABILITIES_t cap={0U};
 3053              		.loc 1 1061 0
 3054 0006 0023     		movs	r3, #0
 3055 0008 7B60     		str	r3, [r7, #4]
1062:/opt/XMClib/XMC_Peripheral_Library_v2.1.16/XMCLib/src/xmc_usbd.c ****   cap.event_connect = 1U;
 3056              		.loc 1 1062 0
 3057 000a 3B79     		ldrb	r3, [r7, #4]
 3058 000c 43F00403 		orr	r3, r3, #4
 3059 0010 3B71     		strb	r3, [r7, #4]
1063:/opt/XMClib/XMC_Peripheral_Library_v2.1.16/XMCLib/src/xmc_usbd.c ****   cap.event_disconnect = 1U;
 3060              		.loc 1 1063 0
 3061 0012 3B79     		ldrb	r3, [r7, #4]
 3062 0014 43F00803 		orr	r3, r3, #8
 3063 0018 3B71     		strb	r3, [r7, #4]
1064:/opt/XMClib/XMC_Peripheral_Library_v2.1.16/XMCLib/src/xmc_usbd.c **** #if UC_SERIES == 45
1065:/opt/XMClib/XMC_Peripheral_Library_v2.1.16/XMCLib/src/xmc_usbd.c ****   cap.event_power_off = 1U;
 3064              		.loc 1 1065 0
 3065 001a 3B79     		ldrb	r3, [r7, #4]
 3066 001c 43F00203 		orr	r3, r3, #2
 3067 0020 3B71     		strb	r3, [r7, #4]
1066:/opt/XMClib/XMC_Peripheral_Library_v2.1.16/XMCLib/src/xmc_usbd.c ****   cap.event_power_on = 1U;
 3068              		.loc 1 1066 0
 3069 0022 3B79     		ldrb	r3, [r7, #4]
 3070 0024 43F00103 		orr	r3, r3, #1
 3071 0028 3B71     		strb	r3, [r7, #4]
1067:/opt/XMClib/XMC_Peripheral_Library_v2.1.16/XMCLib/src/xmc_usbd.c **** #else
1068:/opt/XMClib/XMC_Peripheral_Library_v2.1.16/XMCLib/src/xmc_usbd.c ****   cap.event_power_off = 0U;
1069:/opt/XMClib/XMC_Peripheral_Library_v2.1.16/XMCLib/src/xmc_usbd.c ****   cap.event_power_on = 0U;
1070:/opt/XMClib/XMC_Peripheral_Library_v2.1.16/XMCLib/src/xmc_usbd.c **** #endif
1071:/opt/XMClib/XMC_Peripheral_Library_v2.1.16/XMCLib/src/xmc_usbd.c ****   cap.event_high_speed = 0U;
 3072              		.loc 1 1071 0
 3073 002a 3B79     		ldrb	r3, [r7, #4]
 3074 002c 6FF34513 		bfc	r3, #5, #1
 3075 0030 3B71     		strb	r3, [r7, #4]
1072:/opt/XMClib/XMC_Peripheral_Library_v2.1.16/XMCLib/src/xmc_usbd.c ****   cap.event_remote_wakeup = 1U;
 3076              		.loc 1 1072 0
 3077 0032 7B79     		ldrb	r3, [r7, #5]
 3078 0034 43F00103 		orr	r3, r3, #1
 3079 0038 7B71     		strb	r3, [r7, #5]
1073:/opt/XMClib/XMC_Peripheral_Library_v2.1.16/XMCLib/src/xmc_usbd.c ****   cap.event_reset = 1U;
 3080              		.loc 1 1073 0
 3081 003a 3B79     		ldrb	r3, [r7, #4]
 3082 003c 43F01003 		orr	r3, r3, #16
 3083 0040 3B71     		strb	r3, [r7, #4]
1074:/opt/XMClib/XMC_Peripheral_Library_v2.1.16/XMCLib/src/xmc_usbd.c ****   cap.event_resume = 1U;
 3084              		.loc 1 1074 0
 3085 0042 3B79     		ldrb	r3, [r7, #4]
 3086 0044 43F08003 		orr	r3, r3, #128
 3087 0048 3B71     		strb	r3, [r7, #4]
1075:/opt/XMClib/XMC_Peripheral_Library_v2.1.16/XMCLib/src/xmc_usbd.c ****   cap.event_suspend = 1U;
 3088              		.loc 1 1075 0
 3089 004a 3B79     		ldrb	r3, [r7, #4]
 3090 004c 43F04003 		orr	r3, r3, #64
 3091 0050 3B71     		strb	r3, [r7, #4]
1076:/opt/XMClib/XMC_Peripheral_Library_v2.1.16/XMCLib/src/xmc_usbd.c ****   cap.reserved = 0U;
 3092              		.loc 1 1076 0
 3093 0052 7B68     		ldr	r3, [r7, #4]
 3094 0054 6FF35F23 		bfc	r3, #9, #23
 3095 0058 7B60     		str	r3, [r7, #4]
1077:/opt/XMClib/XMC_Peripheral_Library_v2.1.16/XMCLib/src/xmc_usbd.c ****   return cap;
 3096              		.loc 1 1077 0
 3097 005a 7B68     		ldr	r3, [r7, #4]
1078:/opt/XMClib/XMC_Peripheral_Library_v2.1.16/XMCLib/src/xmc_usbd.c **** }
 3098              		.loc 1 1078 0
 3099 005c 1846     		mov	r0, r3
 3100 005e 0C37     		adds	r7, r7, #12
 3101              	.LCFI132:
 3102              		.cfi_def_cfa_offset 4
 3103 0060 BD46     		mov	sp, r7
 3104              	.LCFI133:
 3105              		.cfi_def_cfa_register 13
 3106              		@ sp needed
 3107 0062 5DF8047B 		ldr	r7, [sp], #4
 3108              	.LCFI134:
 3109              		.cfi_restore 7
 3110              		.cfi_def_cfa_offset 0
 3111 0066 7047     		bx	lr
 3112              		.cfi_endproc
 3113              	.LFE186:
 3115              		.section	.text.XMC_USBD_Init,"ax",%progbits
 3116              		.align	1
 3117              		.global	XMC_USBD_Init
 3118              		.syntax unified
 3119              		.thumb
 3120              		.thumb_func
 3121              		.fpu fpv4-sp-d16
 3123              	XMC_USBD_Init:
 3124              	.LFB187:
1079:/opt/XMClib/XMC_Peripheral_Library_v2.1.16/XMCLib/src/xmc_usbd.c **** 
1080:/opt/XMClib/XMC_Peripheral_Library_v2.1.16/XMCLib/src/xmc_usbd.c **** /**
1081:/opt/XMClib/XMC_Peripheral_Library_v2.1.16/XMCLib/src/xmc_usbd.c ****  * Initializes the USB device
1082:/opt/XMClib/XMC_Peripheral_Library_v2.1.16/XMCLib/src/xmc_usbd.c ****  **/
1083:/opt/XMClib/XMC_Peripheral_Library_v2.1.16/XMCLib/src/xmc_usbd.c **** XMC_USBD_STATUS_t XMC_USBD_Init(XMC_USBD_t *obj)
1084:/opt/XMClib/XMC_Peripheral_Library_v2.1.16/XMCLib/src/xmc_usbd.c **** {
 3125              		.loc 1 1084 0
 3126              		.cfi_startproc
 3127              		@ args = 0, pretend = 0, frame = 40
 3128              		@ frame_needed = 1, uses_anonymous_args = 0
 3129 0000 80B5     		push	{r7, lr}
 3130              	.LCFI135:
 3131              		.cfi_def_cfa_offset 8
 3132              		.cfi_offset 7, -8
 3133              		.cfi_offset 14, -4
 3134 0002 8AB0     		sub	sp, sp, #40
 3135              	.LCFI136:
 3136              		.cfi_def_cfa_offset 48
 3137 0004 00AF     		add	r7, sp, #0
 3138              	.LCFI137:
 3139              		.cfi_def_cfa_register 7
 3140 0006 7860     		str	r0, [r7, #4]
1085:/opt/XMClib/XMC_Peripheral_Library_v2.1.16/XMCLib/src/xmc_usbd.c ****   uint8_t *XMC_USBD_BASE_ADDRESS;
1086:/opt/XMClib/XMC_Peripheral_Library_v2.1.16/XMCLib/src/xmc_usbd.c ****   uint32_t i;
1087:/opt/XMClib/XMC_Peripheral_Library_v2.1.16/XMCLib/src/xmc_usbd.c ****   gahbcfg_data_t gahbcfg;
1088:/opt/XMClib/XMC_Peripheral_Library_v2.1.16/XMCLib/src/xmc_usbd.c ****   gusbcfg_data_t gusbcfg;
1089:/opt/XMClib/XMC_Peripheral_Library_v2.1.16/XMCLib/src/xmc_usbd.c ****   dcfg_data_t dcfg;
1090:/opt/XMClib/XMC_Peripheral_Library_v2.1.16/XMCLib/src/xmc_usbd.c ****   dctl_data_t dctl;
1091:/opt/XMClib/XMC_Peripheral_Library_v2.1.16/XMCLib/src/xmc_usbd.c ****   gintmsk_data_t gintmsk;
1092:/opt/XMClib/XMC_Peripheral_Library_v2.1.16/XMCLib/src/xmc_usbd.c **** 
1093:/opt/XMClib/XMC_Peripheral_Library_v2.1.16/XMCLib/src/xmc_usbd.c ****   XMC_ASSERT("XMC_USBD_Init: obj.usbd_max_num_eps not of type XMC_USBD_MAX_NUM_EPS_t",
1094:/opt/XMClib/XMC_Peripheral_Library_v2.1.16/XMCLib/src/xmc_usbd.c ****  		      XMC_USBD_CHECK_INPUT_MAX_NUM_EPS(obj->usbd_max_num_eps))
1095:/opt/XMClib/XMC_Peripheral_Library_v2.1.16/XMCLib/src/xmc_usbd.c ****   
1096:/opt/XMClib/XMC_Peripheral_Library_v2.1.16/XMCLib/src/xmc_usbd.c ****   XMC_USBD_Enable();
 3141              		.loc 1 1096 0
 3142 0008 FFF7FEFF 		bl	XMC_USBD_Enable
1097:/opt/XMClib/XMC_Peripheral_Library_v2.1.16/XMCLib/src/xmc_usbd.c ****   
1098:/opt/XMClib/XMC_Peripheral_Library_v2.1.16/XMCLib/src/xmc_usbd.c ****   usbd_init = obj;
 3143              		.loc 1 1098 0
 3144 000c 874A     		ldr	r2, .L191
 3145 000e 7B68     		ldr	r3, [r7, #4]
 3146 0010 1360     		str	r3, [r2]
1099:/opt/XMClib/XMC_Peripheral_Library_v2.1.16/XMCLib/src/xmc_usbd.c **** 
1100:/opt/XMClib/XMC_Peripheral_Library_v2.1.16/XMCLib/src/xmc_usbd.c ****   /* Filling out buffer size */
1101:/opt/XMClib/XMC_Peripheral_Library_v2.1.16/XMCLib/src/xmc_usbd.c ****   for(i = 0U;i < (uint32_t)XMC_USBD_NUM_EPS;i++)
 3147              		.loc 1 1101 0
 3148 0012 0023     		movs	r3, #0
 3149 0014 7B62     		str	r3, [r7, #36]
 3150 0016 0CE0     		b	.L179
 3151              	.L180:
1102:/opt/XMClib/XMC_Peripheral_Library_v2.1.16/XMCLib/src/xmc_usbd.c ****   {
1103:/opt/XMClib/XMC_Peripheral_Library_v2.1.16/XMCLib/src/xmc_usbd.c **** 	  XMC_USBD_EP_OUT_BUFFERSIZE[i] = XMC_USBD_EP0_BUFFER_SIZE;
 3152              		.loc 1 1103 0 discriminator 3
 3153 0018 854A     		ldr	r2, .L191+4
 3154 001a 7B6A     		ldr	r3, [r7, #36]
 3155 001c 4021     		movs	r1, #64
 3156 001e 42F82310 		str	r1, [r2, r3, lsl #2]
1104:/opt/XMClib/XMC_Peripheral_Library_v2.1.16/XMCLib/src/xmc_usbd.c **** 	  XMC_USBD_EP_IN_BUFFERSIZE[i] 	= XMC_USBD_EP0_BUFFER_SIZE;
 3157              		.loc 1 1104 0 discriminator 3
 3158 0022 844A     		ldr	r2, .L191+8
 3159 0024 7B6A     		ldr	r3, [r7, #36]
 3160 0026 4021     		movs	r1, #64
 3161 0028 42F82310 		str	r1, [r2, r3, lsl #2]
1101:/opt/XMClib/XMC_Peripheral_Library_v2.1.16/XMCLib/src/xmc_usbd.c ****   {
 3162              		.loc 1 1101 0 discriminator 3
 3163 002c 7B6A     		ldr	r3, [r7, #36]
 3164 002e 0133     		adds	r3, r3, #1
 3165 0030 7B62     		str	r3, [r7, #36]
 3166              	.L179:
1101:/opt/XMClib/XMC_Peripheral_Library_v2.1.16/XMCLib/src/xmc_usbd.c ****   {
 3167              		.loc 1 1101 0 is_stmt 0 discriminator 1
 3168 0032 7B6A     		ldr	r3, [r7, #36]
 3169 0034 062B     		cmp	r3, #6
 3170 0036 EFD9     		bls	.L180
1105:/opt/XMClib/XMC_Peripheral_Library_v2.1.16/XMCLib/src/xmc_usbd.c ****   }
1106:/opt/XMClib/XMC_Peripheral_Library_v2.1.16/XMCLib/src/xmc_usbd.c **** 
1107:/opt/XMClib/XMC_Peripheral_Library_v2.1.16/XMCLib/src/xmc_usbd.c ****   /* clear device status */
1108:/opt/XMClib/XMC_Peripheral_Library_v2.1.16/XMCLib/src/xmc_usbd.c ****   memset((void*)&xmc_device,0x0U,sizeof(XMC_USBD_DEVICE_t));
 3171              		.loc 1 1108 0 is_stmt 1
 3172 0038 4FF40272 		mov	r2, #520
 3173 003c 0021     		movs	r1, #0
 3174 003e 7E48     		ldr	r0, .L191+12
 3175 0040 FFF7FEFF 		bl	memset
1109:/opt/XMClib/XMC_Peripheral_Library_v2.1.16/XMCLib/src/xmc_usbd.c **** 
1110:/opt/XMClib/XMC_Peripheral_Library_v2.1.16/XMCLib/src/xmc_usbd.c ****   /* assign callbacks */
1111:/opt/XMClib/XMC_Peripheral_Library_v2.1.16/XMCLib/src/xmc_usbd.c ****   xmc_device.DeviceEvent_cb = obj->cb_xmc_device_event;
 3176              		.loc 1 1111 0
 3177 0044 7B68     		ldr	r3, [r7, #4]
 3178 0046 5B68     		ldr	r3, [r3, #4]
 3179 0048 7B4A     		ldr	r2, .L191+12
 3180 004a C2F80032 		str	r3, [r2, #512]
1112:/opt/XMClib/XMC_Peripheral_Library_v2.1.16/XMCLib/src/xmc_usbd.c ****   xmc_device.EndpointEvent_cb = obj->cb_endpoint_event;
 3181              		.loc 1 1112 0
 3182 004e 7B68     		ldr	r3, [r7, #4]
 3183 0050 9B68     		ldr	r3, [r3, #8]
 3184 0052 794A     		ldr	r2, .L191+12
 3185 0054 C2F80432 		str	r3, [r2, #516]
1113:/opt/XMClib/XMC_Peripheral_Library_v2.1.16/XMCLib/src/xmc_usbd.c ****   XMC_USBD_BASE_ADDRESS = (uint8_t *)(obj->usbd);
 3186              		.loc 1 1113 0
 3187 0058 7B68     		ldr	r3, [r7, #4]
 3188 005a 1B68     		ldr	r3, [r3]
 3189 005c 3B62     		str	r3, [r7, #32]
1114:/opt/XMClib/XMC_Peripheral_Library_v2.1.16/XMCLib/src/xmc_usbd.c ****   /* assign register address */
1115:/opt/XMClib/XMC_Peripheral_Library_v2.1.16/XMCLib/src/xmc_usbd.c ****   xmc_device.global_register = (dwc_otg_core_global_regs_t*)(obj->usbd);
 3190              		.loc 1 1115 0
 3191 005e 7B68     		ldr	r3, [r7, #4]
 3192 0060 1B68     		ldr	r3, [r3]
 3193 0062 754A     		ldr	r2, .L191+12
 3194 0064 C2F8A031 		str	r3, [r2, #416]
1116:/opt/XMClib/XMC_Peripheral_Library_v2.1.16/XMCLib/src/xmc_usbd.c ****   xmc_device.device_register = ((dwc_otg_device_global_regs_t*)(XMC_USBD_BASE_ADDRESS + DWC_DEV_GLO
 3195              		.loc 1 1116 0
 3196 0068 3B6A     		ldr	r3, [r7, #32]
 3197 006a 03F50063 		add	r3, r3, #2048
 3198 006e 724A     		ldr	r2, .L191+12
 3199 0070 C2F8A431 		str	r3, [r2, #420]
1117:/opt/XMClib/XMC_Peripheral_Library_v2.1.16/XMCLib/src/xmc_usbd.c ****   for (i = 0U;i < (uint32_t)XMC_USBD_NUM_EPS;i++)
 3200              		.loc 1 1117 0
 3201 0074 0023     		movs	r3, #0
 3202 0076 7B62     		str	r3, [r7, #36]
 3203 0078 0CE0     		b	.L181
 3204              	.L182:
1118:/opt/XMClib/XMC_Peripheral_Library_v2.1.16/XMCLib/src/xmc_usbd.c ****   {
1119:/opt/XMClib/XMC_Peripheral_Library_v2.1.16/XMCLib/src/xmc_usbd.c ****     xmc_device.endpoint_in_register[i] = (dwc_otg_dev_in_ep_regs_t*)(XMC_USBD_BASE_ADDRESS + DWC_DE
 3205              		.loc 1 1119 0 discriminator 3
 3206 007a 7B6A     		ldr	r3, [r7, #36]
 3207 007c 4833     		adds	r3, r3, #72
 3208 007e 5B01     		lsls	r3, r3, #5
 3209 0080 3A6A     		ldr	r2, [r7, #32]
 3210 0082 1A44     		add	r2, r2, r3
 3211 0084 6C49     		ldr	r1, .L191+12
 3212 0086 7B6A     		ldr	r3, [r7, #36]
 3213 0088 6A33     		adds	r3, r3, #106
 3214 008a 41F82320 		str	r2, [r1, r3, lsl #2]
1117:/opt/XMClib/XMC_Peripheral_Library_v2.1.16/XMCLib/src/xmc_usbd.c ****   for (i = 0U;i < (uint32_t)XMC_USBD_NUM_EPS;i++)
 3215              		.loc 1 1117 0 discriminator 3
 3216 008e 7B6A     		ldr	r3, [r7, #36]
 3217 0090 0133     		adds	r3, r3, #1
 3218 0092 7B62     		str	r3, [r7, #36]
 3219              	.L181:
1117:/opt/XMClib/XMC_Peripheral_Library_v2.1.16/XMCLib/src/xmc_usbd.c ****   for (i = 0U;i < (uint32_t)XMC_USBD_NUM_EPS;i++)
 3220              		.loc 1 1117 0 is_stmt 0 discriminator 1
 3221 0094 7B6A     		ldr	r3, [r7, #36]
 3222 0096 062B     		cmp	r3, #6
 3223 0098 EFD9     		bls	.L182
1120:/opt/XMClib/XMC_Peripheral_Library_v2.1.16/XMCLib/src/xmc_usbd.c ****     ((uint32_t)DWC_EP_REG_OFFSET*i));
1121:/opt/XMClib/XMC_Peripheral_Library_v2.1.16/XMCLib/src/xmc_usbd.c ****   }
1122:/opt/XMClib/XMC_Peripheral_Library_v2.1.16/XMCLib/src/xmc_usbd.c ****   for (i = 0U;i < (uint32_t)XMC_USBD_NUM_EPS;i++)
 3224              		.loc 1 1122 0 is_stmt 1
 3225 009a 0023     		movs	r3, #0
 3226 009c 7B62     		str	r3, [r7, #36]
 3227 009e 0DE0     		b	.L183
 3228              	.L184:
1123:/opt/XMClib/XMC_Peripheral_Library_v2.1.16/XMCLib/src/xmc_usbd.c ****   {
1124:/opt/XMClib/XMC_Peripheral_Library_v2.1.16/XMCLib/src/xmc_usbd.c ****     xmc_device.endpoint_out_register[i] = (dwc_otg_dev_out_ep_regs_t*)(XMC_USBD_BASE_ADDRESS +
1125:/opt/XMClib/XMC_Peripheral_Library_v2.1.16/XMCLib/src/xmc_usbd.c ****     									  DWC_DEV_OUT_EP_REG_OFFSET +
 3229              		.loc 1 1125 0 discriminator 3
 3230 00a0 7B6A     		ldr	r3, [r7, #36]
 3231 00a2 5833     		adds	r3, r3, #88
 3232 00a4 5B01     		lsls	r3, r3, #5
 3233 00a6 3A6A     		ldr	r2, [r7, #32]
 3234 00a8 1A44     		add	r2, r2, r3
1124:/opt/XMClib/XMC_Peripheral_Library_v2.1.16/XMCLib/src/xmc_usbd.c ****     									  DWC_DEV_OUT_EP_REG_OFFSET +
 3235              		.loc 1 1124 0 discriminator 3
 3236 00aa 6349     		ldr	r1, .L191+12
 3237 00ac 7B6A     		ldr	r3, [r7, #36]
 3238 00ae 7033     		adds	r3, r3, #112
 3239 00b0 9B00     		lsls	r3, r3, #2
 3240 00b2 0B44     		add	r3, r3, r1
 3241 00b4 5A60     		str	r2, [r3, #4]
1122:/opt/XMClib/XMC_Peripheral_Library_v2.1.16/XMCLib/src/xmc_usbd.c ****   {
 3242              		.loc 1 1122 0 discriminator 3
 3243 00b6 7B6A     		ldr	r3, [r7, #36]
 3244 00b8 0133     		adds	r3, r3, #1
 3245 00ba 7B62     		str	r3, [r7, #36]
 3246              	.L183:
1122:/opt/XMClib/XMC_Peripheral_Library_v2.1.16/XMCLib/src/xmc_usbd.c ****   {
 3247              		.loc 1 1122 0 is_stmt 0 discriminator 1
 3248 00bc 7B6A     		ldr	r3, [r7, #36]
 3249 00be 062B     		cmp	r3, #6
 3250 00c0 EED9     		bls	.L184
1126:/opt/XMClib/XMC_Peripheral_Library_v2.1.16/XMCLib/src/xmc_usbd.c ****     									  ((uint32_t)DWC_EP_REG_OFFSET*i));
1127:/opt/XMClib/XMC_Peripheral_Library_v2.1.16/XMCLib/src/xmc_usbd.c ****   }
1128:/opt/XMClib/XMC_Peripheral_Library_v2.1.16/XMCLib/src/xmc_usbd.c ****   for (i = 0U;i < (uint32_t)XMC_USBD_NUM_TX_FIFOS;i++)
 3251              		.loc 1 1128 0 is_stmt 1
 3252 00c2 0023     		movs	r3, #0
 3253 00c4 7B62     		str	r3, [r7, #36]
 3254 00c6 0CE0     		b	.L185
 3255              	.L186:
1129:/opt/XMClib/XMC_Peripheral_Library_v2.1.16/XMCLib/src/xmc_usbd.c ****   {
1130:/opt/XMClib/XMC_Peripheral_Library_v2.1.16/XMCLib/src/xmc_usbd.c ****     xmc_device.fifo[i] = (uint32_t*)(XMC_USBD_BASE_ADDRESS +
1131:/opt/XMClib/XMC_Peripheral_Library_v2.1.16/XMCLib/src/xmc_usbd.c ****     						XMC_USBD_TX_FIFO_REG_OFFSET +
 3256              		.loc 1 1131 0 discriminator 3
 3257 00c8 7B6A     		ldr	r3, [r7, #36]
 3258 00ca 0133     		adds	r3, r3, #1
 3259 00cc 1B03     		lsls	r3, r3, #12
 3260 00ce 3A6A     		ldr	r2, [r7, #32]
 3261 00d0 1A44     		add	r2, r2, r3
1130:/opt/XMClib/XMC_Peripheral_Library_v2.1.16/XMCLib/src/xmc_usbd.c ****     						XMC_USBD_TX_FIFO_REG_OFFSET +
 3262              		.loc 1 1130 0 discriminator 3
 3263 00d2 5949     		ldr	r1, .L191+12
 3264 00d4 7B6A     		ldr	r3, [r7, #36]
 3265 00d6 7833     		adds	r3, r3, #120
 3266 00d8 41F82320 		str	r2, [r1, r3, lsl #2]
1128:/opt/XMClib/XMC_Peripheral_Library_v2.1.16/XMCLib/src/xmc_usbd.c ****   {
 3267              		.loc 1 1128 0 discriminator 3
 3268 00dc 7B6A     		ldr	r3, [r7, #36]
 3269 00de 0133     		adds	r3, r3, #1
 3270 00e0 7B62     		str	r3, [r7, #36]
 3271              	.L185:
1128:/opt/XMClib/XMC_Peripheral_Library_v2.1.16/XMCLib/src/xmc_usbd.c ****   {
 3272              		.loc 1 1128 0 is_stmt 0 discriminator 1
 3273 00e2 7B6A     		ldr	r3, [r7, #36]
 3274 00e4 062B     		cmp	r3, #6
 3275 00e6 EFD9     		bls	.L186
1132:/opt/XMClib/XMC_Peripheral_Library_v2.1.16/XMCLib/src/xmc_usbd.c ****     						(i * XMC_USBD_TX_FIFO_OFFSET));
1133:/opt/XMClib/XMC_Peripheral_Library_v2.1.16/XMCLib/src/xmc_usbd.c ****   }
1134:/opt/XMClib/XMC_Peripheral_Library_v2.1.16/XMCLib/src/xmc_usbd.c ****   /* obj data structure for endpoint 0 */
1135:/opt/XMClib/XMC_Peripheral_Library_v2.1.16/XMCLib/src/xmc_usbd.c ****   /* Done by driver core */
1136:/opt/XMClib/XMC_Peripheral_Library_v2.1.16/XMCLib/src/xmc_usbd.c ****   /* configure ahb details */  
1137:/opt/XMClib/XMC_Peripheral_Library_v2.1.16/XMCLib/src/xmc_usbd.c ****   gahbcfg.d32 = xmc_device.global_register->gahbcfg;
 3276              		.loc 1 1137 0 is_stmt 1
 3277 00e8 534B     		ldr	r3, .L191+12
 3278 00ea D3F8A031 		ldr	r3, [r3, #416]
 3279 00ee 9B68     		ldr	r3, [r3, #8]
 3280 00f0 FB61     		str	r3, [r7, #28]
1138:/opt/XMClib/XMC_Peripheral_Library_v2.1.16/XMCLib/src/xmc_usbd.c ****   gahbcfg.b.glblintrmsk = 1U; /* enable interrupts ( global mask ) */
 3281              		.loc 1 1138 0
 3282 00f2 3B7F     		ldrb	r3, [r7, #28]
 3283 00f4 43F00103 		orr	r3, r3, #1
 3284 00f8 3B77     		strb	r3, [r7, #28]
1139:/opt/XMClib/XMC_Peripheral_Library_v2.1.16/XMCLib/src/xmc_usbd.c ****   gahbcfg.b.nptxfemplvl_txfemplvl = 1U;
 3285              		.loc 1 1139 0
 3286 00fa 3B7F     		ldrb	r3, [r7, #28]
 3287 00fc 43F08003 		orr	r3, r3, #128
 3288 0100 3B77     		strb	r3, [r7, #28]
1140:/opt/XMClib/XMC_Peripheral_Library_v2.1.16/XMCLib/src/xmc_usbd.c ****   if(obj->usbd_transfer_mode == XMC_USBD_USE_DMA)
 3289              		.loc 1 1140 0
 3290 0102 7B68     		ldr	r3, [r7, #4]
 3291 0104 5B7B     		ldrb	r3, [r3, #13]	@ zero_extendqisi2
 3292 0106 002B     		cmp	r3, #0
 3293 0108 04D1     		bne	.L187
1141:/opt/XMClib/XMC_Peripheral_Library_v2.1.16/XMCLib/src/xmc_usbd.c ****   {
1142:/opt/XMClib/XMC_Peripheral_Library_v2.1.16/XMCLib/src/xmc_usbd.c ****     /* Enable dma if needed */
1143:/opt/XMClib/XMC_Peripheral_Library_v2.1.16/XMCLib/src/xmc_usbd.c ****     gahbcfg.b.dmaenable = 1U; /* enable dma if needed */
 3294              		.loc 1 1143 0
 3295 010a 3B7F     		ldrb	r3, [r7, #28]
 3296 010c 43F02003 		orr	r3, r3, #32
 3297 0110 3B77     		strb	r3, [r7, #28]
 3298 0112 03E0     		b	.L188
 3299              	.L187:
1144:/opt/XMClib/XMC_Peripheral_Library_v2.1.16/XMCLib/src/xmc_usbd.c ****   }
1145:/opt/XMClib/XMC_Peripheral_Library_v2.1.16/XMCLib/src/xmc_usbd.c ****   else
1146:/opt/XMClib/XMC_Peripheral_Library_v2.1.16/XMCLib/src/xmc_usbd.c ****   {
1147:/opt/XMClib/XMC_Peripheral_Library_v2.1.16/XMCLib/src/xmc_usbd.c ****     gahbcfg.b.dmaenable = 0U;
 3300              		.loc 1 1147 0
 3301 0114 3B7F     		ldrb	r3, [r7, #28]
 3302 0116 6FF34513 		bfc	r3, #5, #1
 3303 011a 3B77     		strb	r3, [r7, #28]
 3304              	.L188:
1148:/opt/XMClib/XMC_Peripheral_Library_v2.1.16/XMCLib/src/xmc_usbd.c ****   }
1149:/opt/XMClib/XMC_Peripheral_Library_v2.1.16/XMCLib/src/xmc_usbd.c ****   xmc_device.global_register->gahbcfg = gahbcfg.d32;
 3305              		.loc 1 1149 0
 3306 011c 464B     		ldr	r3, .L191+12
 3307 011e D3F8A031 		ldr	r3, [r3, #416]
 3308 0122 FA69     		ldr	r2, [r7, #28]
 3309 0124 9A60     		str	r2, [r3, #8]
1150:/opt/XMClib/XMC_Peripheral_Library_v2.1.16/XMCLib/src/xmc_usbd.c ****   /* configure usb details */  
1151:/opt/XMClib/XMC_Peripheral_Library_v2.1.16/XMCLib/src/xmc_usbd.c ****   gusbcfg.d32= xmc_device.global_register->gusbcfg;
 3310              		.loc 1 1151 0
 3311 0126 444B     		ldr	r3, .L191+12
 3312 0128 D3F8A031 		ldr	r3, [r3, #416]
 3313 012c DB68     		ldr	r3, [r3, #12]
 3314 012e BB61     		str	r3, [r7, #24]
1152:/opt/XMClib/XMC_Peripheral_Library_v2.1.16/XMCLib/src/xmc_usbd.c ****   gusbcfg.b.force_dev_mode = 1U; /* force us into device mode */
 3315              		.loc 1 1152 0
 3316 0130 FB7E     		ldrb	r3, [r7, #27]
 3317 0132 43F04003 		orr	r3, r3, #64
 3318 0136 FB76     		strb	r3, [r7, #27]
1153:/opt/XMClib/XMC_Peripheral_Library_v2.1.16/XMCLib/src/xmc_usbd.c ****   gusbcfg.b.srpcap = 1U; /* enable session request protocoll */
 3319              		.loc 1 1153 0
 3320 0138 7B7E     		ldrb	r3, [r7, #25]
 3321 013a 43F00103 		orr	r3, r3, #1
 3322 013e 7B76     		strb	r3, [r7, #25]
1154:/opt/XMClib/XMC_Peripheral_Library_v2.1.16/XMCLib/src/xmc_usbd.c ****   xmc_device.global_register->gusbcfg = gusbcfg.d32;
 3323              		.loc 1 1154 0
 3324 0140 3D4B     		ldr	r3, .L191+12
 3325 0142 D3F8A031 		ldr	r3, [r3, #416]
 3326 0146 BA69     		ldr	r2, [r7, #24]
 3327 0148 DA60     		str	r2, [r3, #12]
1155:/opt/XMClib/XMC_Peripheral_Library_v2.1.16/XMCLib/src/xmc_usbd.c **** 
1156:/opt/XMClib/XMC_Peripheral_Library_v2.1.16/XMCLib/src/xmc_usbd.c ****   /* Device init */
1157:/opt/XMClib/XMC_Peripheral_Library_v2.1.16/XMCLib/src/xmc_usbd.c ****   /* configure device speed */  
1158:/opt/XMClib/XMC_Peripheral_Library_v2.1.16/XMCLib/src/xmc_usbd.c ****   dcfg.d32 = xmc_device.device_register->dcfg;
 3328              		.loc 1 1158 0
 3329 014a 3B4B     		ldr	r3, .L191+12
 3330 014c D3F8A431 		ldr	r3, [r3, #420]
 3331 0150 1B68     		ldr	r3, [r3]
 3332 0152 7B61     		str	r3, [r7, #20]
1159:/opt/XMClib/XMC_Peripheral_Library_v2.1.16/XMCLib/src/xmc_usbd.c ****   dcfg.b.devspd = XMC_USBD_DCFG_DEVSPD_FS;
 3333              		.loc 1 1159 0
 3334 0154 3B7D     		ldrb	r3, [r7, #20]
 3335 0156 43F00303 		orr	r3, r3, #3
 3336 015a 3B75     		strb	r3, [r7, #20]
1160:/opt/XMClib/XMC_Peripheral_Library_v2.1.16/XMCLib/src/xmc_usbd.c ****   dcfg.b.descdma = 0U;
 3337              		.loc 1 1160 0
 3338 015c BB7D     		ldrb	r3, [r7, #22]
 3339 015e 6FF3C713 		bfc	r3, #7, #1
 3340 0162 BB75     		strb	r3, [r7, #22]
1161:/opt/XMClib/XMC_Peripheral_Library_v2.1.16/XMCLib/src/xmc_usbd.c ****   xmc_device.device_register->dcfg = dcfg.d32;
 3341              		.loc 1 1161 0
 3342 0164 344B     		ldr	r3, .L191+12
 3343 0166 D3F8A431 		ldr	r3, [r3, #420]
 3344 016a 7A69     		ldr	r2, [r7, #20]
 3345 016c 1A60     		str	r2, [r3]
1162:/opt/XMClib/XMC_Peripheral_Library_v2.1.16/XMCLib/src/xmc_usbd.c ****   /* configure device functions */  
1163:/opt/XMClib/XMC_Peripheral_Library_v2.1.16/XMCLib/src/xmc_usbd.c ****   dctl.d32 = xmc_device.device_register->dctl;
 3346              		.loc 1 1163 0
 3347 016e 324B     		ldr	r3, .L191+12
 3348 0170 D3F8A431 		ldr	r3, [r3, #420]
 3349 0174 5B68     		ldr	r3, [r3, #4]
 3350 0176 3B61     		str	r3, [r7, #16]
1164:/opt/XMClib/XMC_Peripheral_Library_v2.1.16/XMCLib/src/xmc_usbd.c ****   dctl.b.sftdiscon = 1U; /* disconnect the device until its connected by the user */
 3351              		.loc 1 1164 0
 3352 0178 3B7C     		ldrb	r3, [r7, #16]
 3353 017a 43F00203 		orr	r3, r3, #2
 3354 017e 3B74     		strb	r3, [r7, #16]
1165:/opt/XMClib/XMC_Peripheral_Library_v2.1.16/XMCLib/src/xmc_usbd.c ****   /* all other config is done by default register value */
1166:/opt/XMClib/XMC_Peripheral_Library_v2.1.16/XMCLib/src/xmc_usbd.c ****   xmc_device.device_register->dctl = dctl.d32;
 3355              		.loc 1 1166 0
 3356 0180 2D4B     		ldr	r3, .L191+12
 3357 0182 D3F8A431 		ldr	r3, [r3, #420]
 3358 0186 3A69     		ldr	r2, [r7, #16]
 3359 0188 5A60     		str	r2, [r3, #4]
1167:/opt/XMClib/XMC_Peripheral_Library_v2.1.16/XMCLib/src/xmc_usbd.c ****   /* flush the fifos for proper operation */
1168:/opt/XMClib/XMC_Peripheral_Library_v2.1.16/XMCLib/src/xmc_usbd.c ****   XMC_USBD_lFlushTXFifo((uint8_t)0x10U); /* 0x10 == all fifos, see doc */
 3360              		.loc 1 1168 0
 3361 018a 1020     		movs	r0, #16
 3362 018c FFF7FEFF 		bl	XMC_USBD_lFlushTXFifo
1169:/opt/XMClib/XMC_Peripheral_Library_v2.1.16/XMCLib/src/xmc_usbd.c ****   XMC_USBD_lFlushRXFifo();
 3363              		.loc 1 1169 0
 3364 0190 FFF7FEFF 		bl	XMC_USBD_lFlushRXFifo
1170:/opt/XMClib/XMC_Peripheral_Library_v2.1.16/XMCLib/src/xmc_usbd.c ****   /* Enable Global Interrupts */
1171:/opt/XMClib/XMC_Peripheral_Library_v2.1.16/XMCLib/src/xmc_usbd.c ****   /* clear interrupt status bits prior to unmasking */
1172:/opt/XMClib/XMC_Peripheral_Library_v2.1.16/XMCLib/src/xmc_usbd.c ****   xmc_device.global_register->gintmsk = 0U; /* disable all interrupts */
 3365              		.loc 1 1172 0
 3366 0194 284B     		ldr	r3, .L191+12
 3367 0196 D3F8A031 		ldr	r3, [r3, #416]
 3368 019a 0022     		movs	r2, #0
 3369 019c 9A61     		str	r2, [r3, #24]
1173:/opt/XMClib/XMC_Peripheral_Library_v2.1.16/XMCLib/src/xmc_usbd.c ****   xmc_device.global_register->gintsts = 0xFFFFFFFFU; /* clear all interrupts */
 3370              		.loc 1 1173 0
 3371 019e 264B     		ldr	r3, .L191+12
 3372 01a0 D3F8A031 		ldr	r3, [r3, #416]
 3373 01a4 4FF0FF32 		mov	r2, #-1
 3374 01a8 5A61     		str	r2, [r3, #20]
1174:/opt/XMClib/XMC_Peripheral_Library_v2.1.16/XMCLib/src/xmc_usbd.c ****  
1175:/opt/XMClib/XMC_Peripheral_Library_v2.1.16/XMCLib/src/xmc_usbd.c ****   gintmsk.d32 = 0U;
 3375              		.loc 1 1175 0
 3376 01aa 0023     		movs	r3, #0
 3377 01ac FB60     		str	r3, [r7, #12]
1176:/opt/XMClib/XMC_Peripheral_Library_v2.1.16/XMCLib/src/xmc_usbd.c ****   /* enable common interrupts */
1177:/opt/XMClib/XMC_Peripheral_Library_v2.1.16/XMCLib/src/xmc_usbd.c ****   gintmsk.b.modemismatch = 1U;
 3378              		.loc 1 1177 0
 3379 01ae 3B7B     		ldrb	r3, [r7, #12]
 3380 01b0 43F00203 		orr	r3, r3, #2
 3381 01b4 3B73     		strb	r3, [r7, #12]
1178:/opt/XMClib/XMC_Peripheral_Library_v2.1.16/XMCLib/src/xmc_usbd.c ****   gintmsk.b.otgintr = 1U;
 3382              		.loc 1 1178 0
 3383 01b6 3B7B     		ldrb	r3, [r7, #12]
 3384 01b8 43F00403 		orr	r3, r3, #4
 3385 01bc 3B73     		strb	r3, [r7, #12]
1179:/opt/XMClib/XMC_Peripheral_Library_v2.1.16/XMCLib/src/xmc_usbd.c ****   gintmsk.b.sessreqintr = 1U;
 3386              		.loc 1 1179 0
 3387 01be FB7B     		ldrb	r3, [r7, #15]
 3388 01c0 43F04003 		orr	r3, r3, #64
 3389 01c4 FB73     		strb	r3, [r7, #15]
1180:/opt/XMClib/XMC_Peripheral_Library_v2.1.16/XMCLib/src/xmc_usbd.c ****   /* enable device interrupts */
1181:/opt/XMClib/XMC_Peripheral_Library_v2.1.16/XMCLib/src/xmc_usbd.c ****   gintmsk.b.usbreset = 1U;
 3390              		.loc 1 1181 0
 3391 01c6 7B7B     		ldrb	r3, [r7, #13]
 3392 01c8 43F01003 		orr	r3, r3, #16
 3393 01cc 7B73     		strb	r3, [r7, #13]
1182:/opt/XMClib/XMC_Peripheral_Library_v2.1.16/XMCLib/src/xmc_usbd.c ****   gintmsk.b.enumdone = 1U;
 3394              		.loc 1 1182 0
 3395 01ce 7B7B     		ldrb	r3, [r7, #13]
 3396 01d0 43F02003 		orr	r3, r3, #32
 3397 01d4 7B73     		strb	r3, [r7, #13]
1183:/opt/XMClib/XMC_Peripheral_Library_v2.1.16/XMCLib/src/xmc_usbd.c ****   gintmsk.b.erlysuspend = 1U;
 3398              		.loc 1 1183 0
 3399 01d6 7B7B     		ldrb	r3, [r7, #13]
 3400 01d8 43F00403 		orr	r3, r3, #4
 3401 01dc 7B73     		strb	r3, [r7, #13]
1184:/opt/XMClib/XMC_Peripheral_Library_v2.1.16/XMCLib/src/xmc_usbd.c ****   gintmsk.b.usbsuspend = 1U;
 3402              		.loc 1 1184 0
 3403 01de 7B7B     		ldrb	r3, [r7, #13]
 3404 01e0 43F00803 		orr	r3, r3, #8
 3405 01e4 7B73     		strb	r3, [r7, #13]
1185:/opt/XMClib/XMC_Peripheral_Library_v2.1.16/XMCLib/src/xmc_usbd.c ****   gintmsk.b.wkupintr = 1U;
 3406              		.loc 1 1185 0
 3407 01e6 FB7B     		ldrb	r3, [r7, #15]
 3408 01e8 43F08003 		orr	r3, r3, #128
 3409 01ec FB73     		strb	r3, [r7, #15]
1186:/opt/XMClib/XMC_Peripheral_Library_v2.1.16/XMCLib/src/xmc_usbd.c ****   gintmsk.b.sofintr = 1U;
 3410              		.loc 1 1186 0
 3411 01ee 3B7B     		ldrb	r3, [r7, #12]
 3412 01f0 43F00803 		orr	r3, r3, #8
 3413 01f4 3B73     		strb	r3, [r7, #12]
1187:/opt/XMClib/XMC_Peripheral_Library_v2.1.16/XMCLib/src/xmc_usbd.c ****   if(obj->usbd_transfer_mode == XMC_USBD_USE_FIFO)
 3414              		.loc 1 1187 0
 3415 01f6 7B68     		ldr	r3, [r7, #4]
 3416 01f8 5B7B     		ldrb	r3, [r3, #13]	@ zero_extendqisi2
 3417 01fa 012B     		cmp	r3, #1
 3418 01fc 03D1     		bne	.L189
1188:/opt/XMClib/XMC_Peripheral_Library_v2.1.16/XMCLib/src/xmc_usbd.c ****   {
1189:/opt/XMClib/XMC_Peripheral_Library_v2.1.16/XMCLib/src/xmc_usbd.c ****     gintmsk.b.rxstsqlvl = 1U;
 3419              		.loc 1 1189 0
 3420 01fe 3B7B     		ldrb	r3, [r7, #12]
 3421 0200 43F01003 		orr	r3, r3, #16
 3422 0204 3B73     		strb	r3, [r7, #12]
 3423              	.L189:
1190:/opt/XMClib/XMC_Peripheral_Library_v2.1.16/XMCLib/src/xmc_usbd.c ****   }
1191:/opt/XMClib/XMC_Peripheral_Library_v2.1.16/XMCLib/src/xmc_usbd.c ****   gintmsk.b.outepintr = 1U;
 3424              		.loc 1 1191 0
 3425 0206 BB7B     		ldrb	r3, [r7, #14]
 3426 0208 43F00803 		orr	r3, r3, #8
 3427 020c BB73     		strb	r3, [r7, #14]
1192:/opt/XMClib/XMC_Peripheral_Library_v2.1.16/XMCLib/src/xmc_usbd.c ****   gintmsk.b.inepintr = 1U;
 3428              		.loc 1 1192 0
 3429 020e BB7B     		ldrb	r3, [r7, #14]
 3430 0210 43F00403 		orr	r3, r3, #4
 3431 0214 BB73     		strb	r3, [r7, #14]
1193:/opt/XMClib/XMC_Peripheral_Library_v2.1.16/XMCLib/src/xmc_usbd.c ****   xmc_device.global_register->gintmsk = gintmsk.d32;
 3432              		.loc 1 1193 0
 3433 0216 084B     		ldr	r3, .L191+12
 3434 0218 D3F8A031 		ldr	r3, [r3, #416]
 3435 021c FA68     		ldr	r2, [r7, #12]
 3436 021e 9A61     		str	r2, [r3, #24]
1194:/opt/XMClib/XMC_Peripheral_Library_v2.1.16/XMCLib/src/xmc_usbd.c ****   return XMC_USBD_STATUS_OK;
 3437              		.loc 1 1194 0
 3438 0220 0023     		movs	r3, #0
1195:/opt/XMClib/XMC_Peripheral_Library_v2.1.16/XMCLib/src/xmc_usbd.c **** }
 3439              		.loc 1 1195 0
 3440 0222 1846     		mov	r0, r3
 3441 0224 2837     		adds	r7, r7, #40
 3442              	.LCFI138:
 3443              		.cfi_def_cfa_offset 8
 3444 0226 BD46     		mov	sp, r7
 3445              	.LCFI139:
 3446              		.cfi_def_cfa_register 13
 3447              		@ sp needed
 3448 0228 80BD     		pop	{r7, pc}
 3449              	.L192:
 3450 022a 00BF     		.align	2
 3451              	.L191:
 3452 022c 00000000 		.word	usbd_init
 3453 0230 00000000 		.word	XMC_USBD_EP_OUT_BUFFERSIZE
 3454 0234 00000000 		.word	XMC_USBD_EP_IN_BUFFERSIZE
 3455 0238 00000000 		.word	xmc_device
 3456              		.cfi_endproc
 3457              	.LFE187:
 3459              		.section	.text.XMC_USBD_Uninitialize,"ax",%progbits
 3460              		.align	1
 3461              		.global	XMC_USBD_Uninitialize
 3462              		.syntax unified
 3463              		.thumb
 3464              		.thumb_func
 3465              		.fpu fpv4-sp-d16
 3467              	XMC_USBD_Uninitialize:
 3468              	.LFB188:
1196:/opt/XMClib/XMC_Peripheral_Library_v2.1.16/XMCLib/src/xmc_usbd.c **** 
1197:/opt/XMClib/XMC_Peripheral_Library_v2.1.16/XMCLib/src/xmc_usbd.c **** /**
1198:/opt/XMClib/XMC_Peripheral_Library_v2.1.16/XMCLib/src/xmc_usbd.c ****  * Uninitializes the USB device
1199:/opt/XMClib/XMC_Peripheral_Library_v2.1.16/XMCLib/src/xmc_usbd.c ****  **/
1200:/opt/XMClib/XMC_Peripheral_Library_v2.1.16/XMCLib/src/xmc_usbd.c **** XMC_USBD_STATUS_t XMC_USBD_Uninitialize() 
1201:/opt/XMClib/XMC_Peripheral_Library_v2.1.16/XMCLib/src/xmc_usbd.c **** {
 3469              		.loc 1 1201 0
 3470              		.cfi_startproc
 3471              		@ args = 0, pretend = 0, frame = 8
 3472              		@ frame_needed = 1, uses_anonymous_args = 0
 3473 0000 80B5     		push	{r7, lr}
 3474              	.LCFI140:
 3475              		.cfi_def_cfa_offset 8
 3476              		.cfi_offset 7, -8
 3477              		.cfi_offset 14, -4
 3478 0002 82B0     		sub	sp, sp, #8
 3479              	.LCFI141:
 3480              		.cfi_def_cfa_offset 16
 3481 0004 00AF     		add	r7, sp, #0
 3482              	.LCFI142:
 3483              		.cfi_def_cfa_register 7
1202:/opt/XMClib/XMC_Peripheral_Library_v2.1.16/XMCLib/src/xmc_usbd.c ****   /* Disconnect the device */
1203:/opt/XMClib/XMC_Peripheral_Library_v2.1.16/XMCLib/src/xmc_usbd.c ****   dctl_data_t dctl;
1204:/opt/XMClib/XMC_Peripheral_Library_v2.1.16/XMCLib/src/xmc_usbd.c **** 	dctl.d32 = xmc_device.device_register->dctl;
 3484              		.loc 1 1204 0
 3485 0006 0C4B     		ldr	r3, .L195
 3486 0008 D3F8A431 		ldr	r3, [r3, #420]
 3487 000c 5B68     		ldr	r3, [r3, #4]
 3488 000e 7B60     		str	r3, [r7, #4]
1205:/opt/XMClib/XMC_Peripheral_Library_v2.1.16/XMCLib/src/xmc_usbd.c ****   dctl.b.sftdiscon = 1U;
 3489              		.loc 1 1205 0
 3490 0010 3B79     		ldrb	r3, [r7, #4]
 3491 0012 43F00203 		orr	r3, r3, #2
 3492 0016 3B71     		strb	r3, [r7, #4]
1206:/opt/XMClib/XMC_Peripheral_Library_v2.1.16/XMCLib/src/xmc_usbd.c ****   xmc_device.device_register->dctl = dctl.d32;
 3493              		.loc 1 1206 0
 3494 0018 074B     		ldr	r3, .L195
 3495 001a D3F8A431 		ldr	r3, [r3, #420]
 3496 001e 7A68     		ldr	r2, [r7, #4]
 3497 0020 5A60     		str	r2, [r3, #4]
1207:/opt/XMClib/XMC_Peripheral_Library_v2.1.16/XMCLib/src/xmc_usbd.c ****   /* clean up */
1208:/opt/XMClib/XMC_Peripheral_Library_v2.1.16/XMCLib/src/xmc_usbd.c ****   memset((void*)&xmc_device,0U,sizeof(xmc_device));
 3498              		.loc 1 1208 0
 3499 0022 4FF40272 		mov	r2, #520
 3500 0026 0021     		movs	r1, #0
 3501 0028 0348     		ldr	r0, .L195
 3502 002a FFF7FEFF 		bl	memset
1209:/opt/XMClib/XMC_Peripheral_Library_v2.1.16/XMCLib/src/xmc_usbd.c ****   return XMC_USBD_STATUS_OK;
 3503              		.loc 1 1209 0
 3504 002e 0023     		movs	r3, #0
1210:/opt/XMClib/XMC_Peripheral_Library_v2.1.16/XMCLib/src/xmc_usbd.c **** }
 3505              		.loc 1 1210 0
 3506 0030 1846     		mov	r0, r3
 3507 0032 0837     		adds	r7, r7, #8
 3508              	.LCFI143:
 3509              		.cfi_def_cfa_offset 8
 3510 0034 BD46     		mov	sp, r7
 3511              	.LCFI144:
 3512              		.cfi_def_cfa_register 13
 3513              		@ sp needed
 3514 0036 80BD     		pop	{r7, pc}
 3515              	.L196:
 3516              		.align	2
 3517              	.L195:
 3518 0038 00000000 		.word	xmc_device
 3519              		.cfi_endproc
 3520              	.LFE188:
 3522              		.section	.text.XMC_USBD_DeviceConnect,"ax",%progbits
 3523              		.align	1
 3524              		.global	XMC_USBD_DeviceConnect
 3525              		.syntax unified
 3526              		.thumb
 3527              		.thumb_func
 3528              		.fpu fpv4-sp-d16
 3530              	XMC_USBD_DeviceConnect:
 3531              	.LFB189:
1211:/opt/XMClib/XMC_Peripheral_Library_v2.1.16/XMCLib/src/xmc_usbd.c **** 
1212:/opt/XMClib/XMC_Peripheral_Library_v2.1.16/XMCLib/src/xmc_usbd.c **** /**
1213:/opt/XMClib/XMC_Peripheral_Library_v2.1.16/XMCLib/src/xmc_usbd.c ****  * Connects the USB device to host
1214:/opt/XMClib/XMC_Peripheral_Library_v2.1.16/XMCLib/src/xmc_usbd.c ****  **/
1215:/opt/XMClib/XMC_Peripheral_Library_v2.1.16/XMCLib/src/xmc_usbd.c **** XMC_USBD_STATUS_t XMC_USBD_DeviceConnect() 
1216:/opt/XMClib/XMC_Peripheral_Library_v2.1.16/XMCLib/src/xmc_usbd.c **** {
 3532              		.loc 1 1216 0
 3533              		.cfi_startproc
 3534              		@ args = 0, pretend = 0, frame = 8
 3535              		@ frame_needed = 1, uses_anonymous_args = 0
 3536              		@ link register save eliminated.
 3537 0000 80B4     		push	{r7}
 3538              	.LCFI145:
 3539              		.cfi_def_cfa_offset 4
 3540              		.cfi_offset 7, -4
 3541 0002 83B0     		sub	sp, sp, #12
 3542              	.LCFI146:
 3543              		.cfi_def_cfa_offset 16
 3544 0004 00AF     		add	r7, sp, #0
 3545              	.LCFI147:
 3546              		.cfi_def_cfa_register 7
1217:/opt/XMClib/XMC_Peripheral_Library_v2.1.16/XMCLib/src/xmc_usbd.c ****   /* Just disable softdisconnect */
1218:/opt/XMClib/XMC_Peripheral_Library_v2.1.16/XMCLib/src/xmc_usbd.c ****   dctl_data_t dctl;
1219:/opt/XMClib/XMC_Peripheral_Library_v2.1.16/XMCLib/src/xmc_usbd.c **** 	dctl.d32 = xmc_device.device_register->dctl;
 3547              		.loc 1 1219 0
 3548 0006 0A4B     		ldr	r3, .L199
 3549 0008 D3F8A431 		ldr	r3, [r3, #420]
 3550 000c 5B68     		ldr	r3, [r3, #4]
 3551 000e 7B60     		str	r3, [r7, #4]
1220:/opt/XMClib/XMC_Peripheral_Library_v2.1.16/XMCLib/src/xmc_usbd.c ****   dctl.b.sftdiscon = 0U;
 3552              		.loc 1 1220 0
 3553 0010 3B79     		ldrb	r3, [r7, #4]
 3554 0012 6FF34103 		bfc	r3, #1, #1
 3555 0016 3B71     		strb	r3, [r7, #4]
1221:/opt/XMClib/XMC_Peripheral_Library_v2.1.16/XMCLib/src/xmc_usbd.c ****   xmc_device.device_register->dctl = dctl.d32;
 3556              		.loc 1 1221 0
 3557 0018 054B     		ldr	r3, .L199
 3558 001a D3F8A431 		ldr	r3, [r3, #420]
 3559 001e 7A68     		ldr	r2, [r7, #4]
 3560 0020 5A60     		str	r2, [r3, #4]
1222:/opt/XMClib/XMC_Peripheral_Library_v2.1.16/XMCLib/src/xmc_usbd.c ****   return XMC_USBD_STATUS_OK;
 3561              		.loc 1 1222 0
 3562 0022 0023     		movs	r3, #0
1223:/opt/XMClib/XMC_Peripheral_Library_v2.1.16/XMCLib/src/xmc_usbd.c **** }
 3563              		.loc 1 1223 0
 3564 0024 1846     		mov	r0, r3
 3565 0026 0C37     		adds	r7, r7, #12
 3566              	.LCFI148:
 3567              		.cfi_def_cfa_offset 4
 3568 0028 BD46     		mov	sp, r7
 3569              	.LCFI149:
 3570              		.cfi_def_cfa_register 13
 3571              		@ sp needed
 3572 002a 5DF8047B 		ldr	r7, [sp], #4
 3573              	.LCFI150:
 3574              		.cfi_restore 7
 3575              		.cfi_def_cfa_offset 0
 3576 002e 7047     		bx	lr
 3577              	.L200:
 3578              		.align	2
 3579              	.L199:
 3580 0030 00000000 		.word	xmc_device
 3581              		.cfi_endproc
 3582              	.LFE189:
 3584              		.section	.text.XMC_USBD_DeviceDisconnect,"ax",%progbits
 3585              		.align	1
 3586              		.global	XMC_USBD_DeviceDisconnect
 3587              		.syntax unified
 3588              		.thumb
 3589              		.thumb_func
 3590              		.fpu fpv4-sp-d16
 3592              	XMC_USBD_DeviceDisconnect:
 3593              	.LFB190:
1224:/opt/XMClib/XMC_Peripheral_Library_v2.1.16/XMCLib/src/xmc_usbd.c **** 
1225:/opt/XMClib/XMC_Peripheral_Library_v2.1.16/XMCLib/src/xmc_usbd.c **** /**
1226:/opt/XMClib/XMC_Peripheral_Library_v2.1.16/XMCLib/src/xmc_usbd.c ****  * Disconnects the USB device from host
1227:/opt/XMClib/XMC_Peripheral_Library_v2.1.16/XMCLib/src/xmc_usbd.c ****  **/
1228:/opt/XMClib/XMC_Peripheral_Library_v2.1.16/XMCLib/src/xmc_usbd.c **** XMC_USBD_STATUS_t XMC_USBD_DeviceDisconnect() 
1229:/opt/XMClib/XMC_Peripheral_Library_v2.1.16/XMCLib/src/xmc_usbd.c **** {
 3594              		.loc 1 1229 0
 3595              		.cfi_startproc
 3596              		@ args = 0, pretend = 0, frame = 8
 3597              		@ frame_needed = 1, uses_anonymous_args = 0
 3598              		@ link register save eliminated.
 3599 0000 80B4     		push	{r7}
 3600              	.LCFI151:
 3601              		.cfi_def_cfa_offset 4
 3602              		.cfi_offset 7, -4
 3603 0002 83B0     		sub	sp, sp, #12
 3604              	.LCFI152:
 3605              		.cfi_def_cfa_offset 16
 3606 0004 00AF     		add	r7, sp, #0
 3607              	.LCFI153:
 3608              		.cfi_def_cfa_register 7
1230:/opt/XMClib/XMC_Peripheral_Library_v2.1.16/XMCLib/src/xmc_usbd.c ****   dctl_data_t dctl;
1231:/opt/XMClib/XMC_Peripheral_Library_v2.1.16/XMCLib/src/xmc_usbd.c **** 	dctl.d32 = xmc_device.device_register->dctl;
 3609              		.loc 1 1231 0
 3610 0006 0A4B     		ldr	r3, .L203
 3611 0008 D3F8A431 		ldr	r3, [r3, #420]
 3612 000c 5B68     		ldr	r3, [r3, #4]
 3613 000e 7B60     		str	r3, [r7, #4]
1232:/opt/XMClib/XMC_Peripheral_Library_v2.1.16/XMCLib/src/xmc_usbd.c ****   dctl.b.sftdiscon = 1U;
 3614              		.loc 1 1232 0
 3615 0010 3B79     		ldrb	r3, [r7, #4]
 3616 0012 43F00203 		orr	r3, r3, #2
 3617 0016 3B71     		strb	r3, [r7, #4]
1233:/opt/XMClib/XMC_Peripheral_Library_v2.1.16/XMCLib/src/xmc_usbd.c ****   xmc_device.device_register->dctl = dctl.d32;
 3618              		.loc 1 1233 0
 3619 0018 054B     		ldr	r3, .L203
 3620 001a D3F8A431 		ldr	r3, [r3, #420]
 3621 001e 7A68     		ldr	r2, [r7, #4]
 3622 0020 5A60     		str	r2, [r3, #4]
1234:/opt/XMClib/XMC_Peripheral_Library_v2.1.16/XMCLib/src/xmc_usbd.c ****   return XMC_USBD_STATUS_OK;
 3623              		.loc 1 1234 0
 3624 0022 0023     		movs	r3, #0
1235:/opt/XMClib/XMC_Peripheral_Library_v2.1.16/XMCLib/src/xmc_usbd.c **** }
 3625              		.loc 1 1235 0
 3626 0024 1846     		mov	r0, r3
 3627 0026 0C37     		adds	r7, r7, #12
 3628              	.LCFI154:
 3629              		.cfi_def_cfa_offset 4
 3630 0028 BD46     		mov	sp, r7
 3631              	.LCFI155:
 3632              		.cfi_def_cfa_register 13
 3633              		@ sp needed
 3634 002a 5DF8047B 		ldr	r7, [sp], #4
 3635              	.LCFI156:
 3636              		.cfi_restore 7
 3637              		.cfi_def_cfa_offset 0
 3638 002e 7047     		bx	lr
 3639              	.L204:
 3640              		.align	2
 3641              	.L203:
 3642 0030 00000000 		.word	xmc_device
 3643              		.cfi_endproc
 3644              	.LFE190:
 3646              		.section	.text.XMC_USBD_DeviceGetState,"ax",%progbits
 3647              		.align	1
 3648              		.global	XMC_USBD_DeviceGetState
 3649              		.syntax unified
 3650              		.thumb
 3651              		.thumb_func
 3652              		.fpu fpv4-sp-d16
 3654              	XMC_USBD_DeviceGetState:
 3655              	.LFB191:
1236:/opt/XMClib/XMC_Peripheral_Library_v2.1.16/XMCLib/src/xmc_usbd.c **** 
1237:/opt/XMClib/XMC_Peripheral_Library_v2.1.16/XMCLib/src/xmc_usbd.c **** /**
1238:/opt/XMClib/XMC_Peripheral_Library_v2.1.16/XMCLib/src/xmc_usbd.c ****  * Gets the USB device state.
1239:/opt/XMClib/XMC_Peripheral_Library_v2.1.16/XMCLib/src/xmc_usbd.c ****  **/
1240:/opt/XMClib/XMC_Peripheral_Library_v2.1.16/XMCLib/src/xmc_usbd.c **** XMC_USBD_STATE_t XMC_USBD_DeviceGetState(const XMC_USBD_t *const obj) 
1241:/opt/XMClib/XMC_Peripheral_Library_v2.1.16/XMCLib/src/xmc_usbd.c **** {
 3656              		.loc 1 1241 0
 3657              		.cfi_startproc
 3658              		@ args = 0, pretend = 0, frame = 16
 3659              		@ frame_needed = 1, uses_anonymous_args = 0
 3660 0000 80B5     		push	{r7, lr}
 3661              	.LCFI157:
 3662              		.cfi_def_cfa_offset 8
 3663              		.cfi_offset 7, -8
 3664              		.cfi_offset 14, -4
 3665 0002 84B0     		sub	sp, sp, #16
 3666              	.LCFI158:
 3667              		.cfi_def_cfa_offset 24
 3668 0004 00AF     		add	r7, sp, #0
 3669              	.LCFI159:
 3670              		.cfi_def_cfa_register 7
 3671 0006 7860     		str	r0, [r7, #4]
1242:/opt/XMClib/XMC_Peripheral_Library_v2.1.16/XMCLib/src/xmc_usbd.c ****   XMC_USBD_STATE_t state={0U};
 3672              		.loc 1 1242 0
 3673 0008 0023     		movs	r3, #0
 3674 000a FB60     		str	r3, [r7, #12]
1243:/opt/XMClib/XMC_Peripheral_Library_v2.1.16/XMCLib/src/xmc_usbd.c ****   state.speed = XMC_USBD_SPEED_FULL;
 3675              		.loc 1 1243 0
 3676 000c 3B7B     		ldrb	r3, [r7, #12]
 3677 000e 0122     		movs	r2, #1
 3678 0010 62F3C403 		bfi	r3, r2, #3, #2
 3679 0014 3B73     		strb	r3, [r7, #12]
1244:/opt/XMClib/XMC_Peripheral_Library_v2.1.16/XMCLib/src/xmc_usbd.c ****   state.connected = xmc_device.IsConnected;
 3680              		.loc 1 1244 0
 3681 0016 124B     		ldr	r3, .L207
 3682 0018 93F8FE31 		ldrb	r3, [r3, #510]
 3683 001c C3F30003 		ubfx	r3, r3, #0, #1
 3684 0020 DAB2     		uxtb	r2, r3
 3685 0022 3B7B     		ldrb	r3, [r7, #12]
 3686 0024 62F34103 		bfi	r3, r2, #1, #1
 3687 0028 3B73     		strb	r3, [r7, #12]
1245:/opt/XMClib/XMC_Peripheral_Library_v2.1.16/XMCLib/src/xmc_usbd.c ****   state.active = XMC_USBD_lDeviceActive(obj);
 3688              		.loc 1 1245 0
 3689 002a 7868     		ldr	r0, [r7, #4]
 3690 002c FFF7FEFF 		bl	XMC_USBD_lDeviceActive
 3691 0030 0346     		mov	r3, r0
 3692 0032 03F00103 		and	r3, r3, #1
 3693 0036 DAB2     		uxtb	r2, r3
 3694 0038 3B7B     		ldrb	r3, [r7, #12]
 3695 003a 62F38203 		bfi	r3, r2, #2, #1
 3696 003e 3B73     		strb	r3, [r7, #12]
1246:/opt/XMClib/XMC_Peripheral_Library_v2.1.16/XMCLib/src/xmc_usbd.c ****   state.powered = xmc_device.IsPowered;
 3697              		.loc 1 1246 0
 3698 0040 074B     		ldr	r3, .L207
 3699 0042 93F8FE31 		ldrb	r3, [r3, #510]
 3700 0046 C3F38003 		ubfx	r3, r3, #2, #1
 3701 004a DAB2     		uxtb	r2, r3
 3702 004c 3B7B     		ldrb	r3, [r7, #12]
 3703 004e 62F30003 		bfi	r3, r2, #0, #1
 3704 0052 3B73     		strb	r3, [r7, #12]
1247:/opt/XMClib/XMC_Peripheral_Library_v2.1.16/XMCLib/src/xmc_usbd.c ****   return state;
 3705              		.loc 1 1247 0
 3706 0054 FB68     		ldr	r3, [r7, #12]
1248:/opt/XMClib/XMC_Peripheral_Library_v2.1.16/XMCLib/src/xmc_usbd.c **** }
 3707              		.loc 1 1248 0
 3708 0056 1846     		mov	r0, r3
 3709 0058 1037     		adds	r7, r7, #16
 3710              	.LCFI160:
 3711              		.cfi_def_cfa_offset 8
 3712 005a BD46     		mov	sp, r7
 3713              	.LCFI161:
 3714              		.cfi_def_cfa_register 13
 3715              		@ sp needed
 3716 005c 80BD     		pop	{r7, pc}
 3717              	.L208:
 3718 005e 00BF     		.align	2
 3719              	.L207:
 3720 0060 00000000 		.word	xmc_device
 3721              		.cfi_endproc
 3722              	.LFE191:
 3724              		.section	.text.XMC_USBD_EndpointReadStart,"ax",%progbits
 3725              		.align	1
 3726              		.global	XMC_USBD_EndpointReadStart
 3727              		.syntax unified
 3728              		.thumb
 3729              		.thumb_func
 3730              		.fpu fpv4-sp-d16
 3732              	XMC_USBD_EndpointReadStart:
 3733              	.LFB192:
1249:/opt/XMClib/XMC_Peripheral_Library_v2.1.16/XMCLib/src/xmc_usbd.c **** 
1250:/opt/XMClib/XMC_Peripheral_Library_v2.1.16/XMCLib/src/xmc_usbd.c **** /**
1251:/opt/XMClib/XMC_Peripheral_Library_v2.1.16/XMCLib/src/xmc_usbd.c ****  * Prepares the endpoint to read next OUT packet
1252:/opt/XMClib/XMC_Peripheral_Library_v2.1.16/XMCLib/src/xmc_usbd.c ****  **/
1253:/opt/XMClib/XMC_Peripheral_Library_v2.1.16/XMCLib/src/xmc_usbd.c **** XMC_USBD_STATUS_t XMC_USBD_EndpointReadStart(const uint8_t ep_addr, uint32_t size) 
1254:/opt/XMClib/XMC_Peripheral_Library_v2.1.16/XMCLib/src/xmc_usbd.c **** {
 3734              		.loc 1 1254 0
 3735              		.cfi_startproc
 3736              		@ args = 0, pretend = 0, frame = 16
 3737              		@ frame_needed = 1, uses_anonymous_args = 0
 3738 0000 80B5     		push	{r7, lr}
 3739              	.LCFI162:
 3740              		.cfi_def_cfa_offset 8
 3741              		.cfi_offset 7, -8
 3742              		.cfi_offset 14, -4
 3743 0002 84B0     		sub	sp, sp, #16
 3744              	.LCFI163:
 3745              		.cfi_def_cfa_offset 24
 3746 0004 00AF     		add	r7, sp, #0
 3747              	.LCFI164:
 3748              		.cfi_def_cfa_register 7
 3749 0006 0346     		mov	r3, r0
 3750 0008 3960     		str	r1, [r7]
 3751 000a FB71     		strb	r3, [r7, #7]
1255:/opt/XMClib/XMC_Peripheral_Library_v2.1.16/XMCLib/src/xmc_usbd.c ****   XMC_USBD_EP_t *ep = &xmc_device.ep[ep_addr & (uint8_t)XMC_USBD_EP_NUM_MASK];
 3752              		.loc 1 1255 0
 3753 000c FB79     		ldrb	r3, [r7, #7]	@ zero_extendqisi2
 3754 000e 03F00F03 		and	r3, r3, #15
 3755 0012 3422     		movs	r2, #52
 3756 0014 02FB03F3 		mul	r3, r2, r3
 3757 0018 1A4A     		ldr	r2, .L215
 3758 001a 1344     		add	r3, r3, r2
 3759 001c BB60     		str	r3, [r7, #8]
1256:/opt/XMClib/XMC_Peripheral_Library_v2.1.16/XMCLib/src/xmc_usbd.c ****   XMC_USBD_STATUS_t result;
1257:/opt/XMClib/XMC_Peripheral_Library_v2.1.16/XMCLib/src/xmc_usbd.c **** 	
1258:/opt/XMClib/XMC_Peripheral_Library_v2.1.16/XMCLib/src/xmc_usbd.c ****   if (ep->outInUse || !ep->isConfigured)
 3760              		.loc 1 1258 0
 3761 001e BB68     		ldr	r3, [r7, #8]
 3762 0020 5B68     		ldr	r3, [r3, #4]
 3763 0022 C3F30013 		ubfx	r3, r3, #4, #1
 3764 0026 DBB2     		uxtb	r3, r3
 3765 0028 002B     		cmp	r3, #0
 3766 002a 06D1     		bne	.L210
 3767              		.loc 1 1258 0 is_stmt 0 discriminator 1
 3768 002c BB68     		ldr	r3, [r7, #8]
 3769 002e 1B79     		ldrb	r3, [r3, #4]	@ zero_extendqisi2
 3770 0030 03F00403 		and	r3, r3, #4
 3771 0034 DBB2     		uxtb	r3, r3
 3772 0036 002B     		cmp	r3, #0
 3773 0038 02D1     		bne	.L211
 3774              	.L210:
1259:/opt/XMClib/XMC_Peripheral_Library_v2.1.16/XMCLib/src/xmc_usbd.c ****   {
1260:/opt/XMClib/XMC_Peripheral_Library_v2.1.16/XMCLib/src/xmc_usbd.c ****     result = XMC_USBD_STATUS_ERROR;
 3775              		.loc 1 1260 0 is_stmt 1
 3776 003a 0123     		movs	r3, #1
 3777 003c FB73     		strb	r3, [r7, #15]
 3778 003e 1CE0     		b	.L212
 3779              	.L211:
1261:/opt/XMClib/XMC_Peripheral_Library_v2.1.16/XMCLib/src/xmc_usbd.c ****   }
1262:/opt/XMClib/XMC_Peripheral_Library_v2.1.16/XMCLib/src/xmc_usbd.c ****   else
1263:/opt/XMClib/XMC_Peripheral_Library_v2.1.16/XMCLib/src/xmc_usbd.c ****   {
1264:/opt/XMClib/XMC_Peripheral_Library_v2.1.16/XMCLib/src/xmc_usbd.c ****     /* short the length to buffer size if needed */
1265:/opt/XMClib/XMC_Peripheral_Library_v2.1.16/XMCLib/src/xmc_usbd.c ****     if (size > ep->outBufferSize)
 3780              		.loc 1 1265 0
 3781 0040 BB68     		ldr	r3, [r7, #8]
 3782 0042 5B69     		ldr	r3, [r3, #20]
 3783 0044 3A68     		ldr	r2, [r7]
 3784 0046 9A42     		cmp	r2, r3
 3785 0048 02D9     		bls	.L213
1266:/opt/XMClib/XMC_Peripheral_Library_v2.1.16/XMCLib/src/xmc_usbd.c ****     {
1267:/opt/XMClib/XMC_Peripheral_Library_v2.1.16/XMCLib/src/xmc_usbd.c ****       size = ep->outBufferSize;
 3786              		.loc 1 1267 0
 3787 004a BB68     		ldr	r3, [r7, #8]
 3788 004c 5B69     		ldr	r3, [r3, #20]
 3789 004e 3B60     		str	r3, [r7]
 3790              	.L213:
1268:/opt/XMClib/XMC_Peripheral_Library_v2.1.16/XMCLib/src/xmc_usbd.c ****     }
1269:/opt/XMClib/XMC_Peripheral_Library_v2.1.16/XMCLib/src/xmc_usbd.c ****     /* set ep values */
1270:/opt/XMClib/XMC_Peripheral_Library_v2.1.16/XMCLib/src/xmc_usbd.c ****     ep->xferTotal = size;
 3791              		.loc 1 1270 0
 3792 0050 BB68     		ldr	r3, [r7, #8]
 3793 0052 3A68     		ldr	r2, [r7]
 3794 0054 1A63     		str	r2, [r3, #48]
1271:/opt/XMClib/XMC_Peripheral_Library_v2.1.16/XMCLib/src/xmc_usbd.c ****     ep->xferCount = 0U;
 3795              		.loc 1 1271 0
 3796 0056 BB68     		ldr	r3, [r7, #8]
 3797 0058 0022     		movs	r2, #0
 3798 005a DA62     		str	r2, [r3, #44]
1272:/opt/XMClib/XMC_Peripheral_Library_v2.1.16/XMCLib/src/xmc_usbd.c ****     ep->xferLength = 0U;
 3799              		.loc 1 1272 0
 3800 005c BB68     		ldr	r3, [r7, #8]
 3801 005e 0022     		movs	r2, #0
 3802 0060 9A62     		str	r2, [r3, #40]
1273:/opt/XMClib/XMC_Peripheral_Library_v2.1.16/XMCLib/src/xmc_usbd.c ****     ep->xferBuffer = ep->outBuffer;
 3803              		.loc 1 1273 0
 3804 0062 BB68     		ldr	r3, [r7, #8]
 3805 0064 DA68     		ldr	r2, [r3, #12]
 3806 0066 BB68     		ldr	r3, [r7, #8]
 3807 0068 5A62     		str	r2, [r3, #36]
1274:/opt/XMClib/XMC_Peripheral_Library_v2.1.16/XMCLib/src/xmc_usbd.c ****     ep->outBytesAvailable = 0U;
 3808              		.loc 1 1274 0
 3809 006a BB68     		ldr	r3, [r7, #8]
 3810 006c 0022     		movs	r2, #0
 3811 006e 1A61     		str	r2, [r3, #16]
1275:/opt/XMClib/XMC_Peripheral_Library_v2.1.16/XMCLib/src/xmc_usbd.c ****     XMC_USBD_lStartReadXfer(ep);
 3812              		.loc 1 1275 0
 3813 0070 B868     		ldr	r0, [r7, #8]
 3814 0072 FFF7FEFF 		bl	XMC_USBD_lStartReadXfer
1276:/opt/XMClib/XMC_Peripheral_Library_v2.1.16/XMCLib/src/xmc_usbd.c ****     result= XMC_USBD_STATUS_OK;
 3815              		.loc 1 1276 0
 3816 0076 0023     		movs	r3, #0
 3817 0078 FB73     		strb	r3, [r7, #15]
 3818              	.L212:
1277:/opt/XMClib/XMC_Peripheral_Library_v2.1.16/XMCLib/src/xmc_usbd.c ****   }
1278:/opt/XMClib/XMC_Peripheral_Library_v2.1.16/XMCLib/src/xmc_usbd.c ****   return result;
 3819              		.loc 1 1278 0
 3820 007a FB7B     		ldrb	r3, [r7, #15]	@ zero_extendqisi2
1279:/opt/XMClib/XMC_Peripheral_Library_v2.1.16/XMCLib/src/xmc_usbd.c **** }
 3821              		.loc 1 1279 0
 3822 007c 1846     		mov	r0, r3
 3823 007e 1037     		adds	r7, r7, #16
 3824              	.LCFI165:
 3825              		.cfi_def_cfa_offset 8
 3826 0080 BD46     		mov	sp, r7
 3827              	.LCFI166:
 3828              		.cfi_def_cfa_register 13
 3829              		@ sp needed
 3830 0082 80BD     		pop	{r7, pc}
 3831              	.L216:
 3832              		.align	2
 3833              	.L215:
 3834 0084 00000000 		.word	xmc_device
 3835              		.cfi_endproc
 3836              	.LFE192:
 3838              		.section	.text.XMC_USBD_EndpointRead,"ax",%progbits
 3839              		.align	1
 3840              		.global	XMC_USBD_EndpointRead
 3841              		.syntax unified
 3842              		.thumb
 3843              		.thumb_func
 3844              		.fpu fpv4-sp-d16
 3846              	XMC_USBD_EndpointRead:
 3847              	.LFB193:
1280:/opt/XMClib/XMC_Peripheral_Library_v2.1.16/XMCLib/src/xmc_usbd.c **** 
1281:/opt/XMClib/XMC_Peripheral_Library_v2.1.16/XMCLib/src/xmc_usbd.c **** /**
1282:/opt/XMClib/XMC_Peripheral_Library_v2.1.16/XMCLib/src/xmc_usbd.c ****  * Reads the number of bytes from the USB OUT endpoint
1283:/opt/XMClib/XMC_Peripheral_Library_v2.1.16/XMCLib/src/xmc_usbd.c ****  **/
1284:/opt/XMClib/XMC_Peripheral_Library_v2.1.16/XMCLib/src/xmc_usbd.c **** int32_t XMC_USBD_EndpointRead(const uint8_t ep_num,uint8_t * buffer,uint32_t length) 
1285:/opt/XMClib/XMC_Peripheral_Library_v2.1.16/XMCLib/src/xmc_usbd.c **** {
 3848              		.loc 1 1285 0
 3849              		.cfi_startproc
 3850              		@ args = 0, pretend = 0, frame = 24
 3851              		@ frame_needed = 1, uses_anonymous_args = 0
 3852 0000 80B5     		push	{r7, lr}
 3853              	.LCFI167:
 3854              		.cfi_def_cfa_offset 8
 3855              		.cfi_offset 7, -8
 3856              		.cfi_offset 14, -4
 3857 0002 86B0     		sub	sp, sp, #24
 3858              	.LCFI168:
 3859              		.cfi_def_cfa_offset 32
 3860 0004 00AF     		add	r7, sp, #0
 3861              	.LCFI169:
 3862              		.cfi_def_cfa_register 7
 3863 0006 0346     		mov	r3, r0
 3864 0008 B960     		str	r1, [r7, #8]
 3865 000a 7A60     		str	r2, [r7, #4]
 3866 000c FB73     		strb	r3, [r7, #15]
1286:/opt/XMClib/XMC_Peripheral_Library_v2.1.16/XMCLib/src/xmc_usbd.c ****   XMC_USBD_EP_t *ep = &xmc_device.ep[ep_num];
 3867              		.loc 1 1286 0
 3868 000e FB7B     		ldrb	r3, [r7, #15]	@ zero_extendqisi2
 3869 0010 3422     		movs	r2, #52
 3870 0012 02FB03F3 		mul	r3, r2, r3
 3871 0016 174A     		ldr	r2, .L222
 3872 0018 1344     		add	r3, r3, r2
 3873 001a 7B61     		str	r3, [r7, #20]
1287:/opt/XMClib/XMC_Peripheral_Library_v2.1.16/XMCLib/src/xmc_usbd.c ****   if (length > ep->outBytesAvailable)
 3874              		.loc 1 1287 0
 3875 001c 7B69     		ldr	r3, [r7, #20]
 3876 001e 1B69     		ldr	r3, [r3, #16]
 3877 0020 7A68     		ldr	r2, [r7, #4]
 3878 0022 9A42     		cmp	r2, r3
 3879 0024 02D9     		bls	.L218
1288:/opt/XMClib/XMC_Peripheral_Library_v2.1.16/XMCLib/src/xmc_usbd.c ****   {
1289:/opt/XMClib/XMC_Peripheral_Library_v2.1.16/XMCLib/src/xmc_usbd.c ****     length = ep->outBytesAvailable;
 3880              		.loc 1 1289 0
 3881 0026 7B69     		ldr	r3, [r7, #20]
 3882 0028 1B69     		ldr	r3, [r3, #16]
 3883 002a 7B60     		str	r3, [r7, #4]
 3884              	.L218:
1290:/opt/XMClib/XMC_Peripheral_Library_v2.1.16/XMCLib/src/xmc_usbd.c ****   }
1291:/opt/XMClib/XMC_Peripheral_Library_v2.1.16/XMCLib/src/xmc_usbd.c ****   memcpy(buffer,&ep->outBuffer[ep->outOffset],length);
 3885              		.loc 1 1291 0
 3886 002c 7B69     		ldr	r3, [r7, #20]
 3887 002e DA68     		ldr	r2, [r3, #12]
 3888 0030 7B69     		ldr	r3, [r7, #20]
 3889 0032 9B69     		ldr	r3, [r3, #24]
 3890 0034 1344     		add	r3, r3, r2
 3891 0036 7A68     		ldr	r2, [r7, #4]
 3892 0038 1946     		mov	r1, r3
 3893 003a B868     		ldr	r0, [r7, #8]
 3894 003c FFF7FEFF 		bl	memcpy
1292:/opt/XMClib/XMC_Peripheral_Library_v2.1.16/XMCLib/src/xmc_usbd.c ****   ep->outBytesAvailable -= length;
 3895              		.loc 1 1292 0
 3896 0040 7B69     		ldr	r3, [r7, #20]
 3897 0042 1A69     		ldr	r2, [r3, #16]
 3898 0044 7B68     		ldr	r3, [r7, #4]
 3899 0046 D21A     		subs	r2, r2, r3
 3900 0048 7B69     		ldr	r3, [r7, #20]
 3901 004a 1A61     		str	r2, [r3, #16]
1293:/opt/XMClib/XMC_Peripheral_Library_v2.1.16/XMCLib/src/xmc_usbd.c ****   if (ep->outBytesAvailable)
 3902              		.loc 1 1293 0
 3903 004c 7B69     		ldr	r3, [r7, #20]
 3904 004e 1B69     		ldr	r3, [r3, #16]
 3905 0050 002B     		cmp	r3, #0
 3906 0052 06D0     		beq	.L219
1294:/opt/XMClib/XMC_Peripheral_Library_v2.1.16/XMCLib/src/xmc_usbd.c ****   {
1295:/opt/XMClib/XMC_Peripheral_Library_v2.1.16/XMCLib/src/xmc_usbd.c ****     ep->outOffset += length;
 3907              		.loc 1 1295 0
 3908 0054 7B69     		ldr	r3, [r7, #20]
 3909 0056 9A69     		ldr	r2, [r3, #24]
 3910 0058 7B68     		ldr	r3, [r7, #4]
 3911 005a 1A44     		add	r2, r2, r3
 3912 005c 7B69     		ldr	r3, [r7, #20]
 3913 005e 9A61     		str	r2, [r3, #24]
 3914 0060 02E0     		b	.L220
 3915              	.L219:
1296:/opt/XMClib/XMC_Peripheral_Library_v2.1.16/XMCLib/src/xmc_usbd.c ****   }
1297:/opt/XMClib/XMC_Peripheral_Library_v2.1.16/XMCLib/src/xmc_usbd.c ****   else
1298:/opt/XMClib/XMC_Peripheral_Library_v2.1.16/XMCLib/src/xmc_usbd.c ****   {
1299:/opt/XMClib/XMC_Peripheral_Library_v2.1.16/XMCLib/src/xmc_usbd.c ****     ep->outOffset = 0U;
 3916              		.loc 1 1299 0
 3917 0062 7B69     		ldr	r3, [r7, #20]
 3918 0064 0022     		movs	r2, #0
 3919 0066 9A61     		str	r2, [r3, #24]
 3920              	.L220:
1300:/opt/XMClib/XMC_Peripheral_Library_v2.1.16/XMCLib/src/xmc_usbd.c ****   }
1301:/opt/XMClib/XMC_Peripheral_Library_v2.1.16/XMCLib/src/xmc_usbd.c ****   return (int32_t)length;
 3921              		.loc 1 1301 0
 3922 0068 7B68     		ldr	r3, [r7, #4]
1302:/opt/XMClib/XMC_Peripheral_Library_v2.1.16/XMCLib/src/xmc_usbd.c **** }
 3923              		.loc 1 1302 0
 3924 006a 1846     		mov	r0, r3
 3925 006c 1837     		adds	r7, r7, #24
 3926              	.LCFI170:
 3927              		.cfi_def_cfa_offset 8
 3928 006e BD46     		mov	sp, r7
 3929              	.LCFI171:
 3930              		.cfi_def_cfa_register 13
 3931              		@ sp needed
 3932 0070 80BD     		pop	{r7, pc}
 3933              	.L223:
 3934 0072 00BF     		.align	2
 3935              	.L222:
 3936 0074 00000000 		.word	xmc_device
 3937              		.cfi_endproc
 3938              	.LFE193:
 3940              		.section	.text.XMC_USBD_EndpointWrite,"ax",%progbits
 3941              		.align	1
 3942              		.global	XMC_USBD_EndpointWrite
 3943              		.syntax unified
 3944              		.thumb
 3945              		.thumb_func
 3946              		.fpu fpv4-sp-d16
 3948              	XMC_USBD_EndpointWrite:
 3949              	.LFB194:
1303:/opt/XMClib/XMC_Peripheral_Library_v2.1.16/XMCLib/src/xmc_usbd.c **** 
1304:/opt/XMClib/XMC_Peripheral_Library_v2.1.16/XMCLib/src/xmc_usbd.c **** /**
1305:/opt/XMClib/XMC_Peripheral_Library_v2.1.16/XMCLib/src/xmc_usbd.c ****  * Writes number of bytes in to the USB IN endpoint.
1306:/opt/XMClib/XMC_Peripheral_Library_v2.1.16/XMCLib/src/xmc_usbd.c ****  **/
1307:/opt/XMClib/XMC_Peripheral_Library_v2.1.16/XMCLib/src/xmc_usbd.c **** int32_t XMC_USBD_EndpointWrite(const uint8_t ep_num,const uint8_t * buffer,uint32_t length) 
1308:/opt/XMClib/XMC_Peripheral_Library_v2.1.16/XMCLib/src/xmc_usbd.c **** {
 3950              		.loc 1 1308 0
 3951              		.cfi_startproc
 3952              		@ args = 0, pretend = 0, frame = 24
 3953              		@ frame_needed = 1, uses_anonymous_args = 0
 3954 0000 80B5     		push	{r7, lr}
 3955              	.LCFI172:
 3956              		.cfi_def_cfa_offset 8
 3957              		.cfi_offset 7, -8
 3958              		.cfi_offset 14, -4
 3959 0002 86B0     		sub	sp, sp, #24
 3960              	.LCFI173:
 3961              		.cfi_def_cfa_offset 32
 3962 0004 00AF     		add	r7, sp, #0
 3963              	.LCFI174:
 3964              		.cfi_def_cfa_register 7
 3965 0006 0346     		mov	r3, r0
 3966 0008 B960     		str	r1, [r7, #8]
 3967 000a 7A60     		str	r2, [r7, #4]
 3968 000c FB73     		strb	r3, [r7, #15]
1309:/opt/XMClib/XMC_Peripheral_Library_v2.1.16/XMCLib/src/xmc_usbd.c ****   XMC_USBD_EP_t * ep = &xmc_device.ep[ep_num & (uint8_t)XMC_USBD_EP_NUM_MASK];
 3969              		.loc 1 1309 0
 3970 000e FB7B     		ldrb	r3, [r7, #15]	@ zero_extendqisi2
 3971 0010 03F00F03 		and	r3, r3, #15
 3972 0014 3422     		movs	r2, #52
 3973 0016 02FB03F3 		mul	r3, r2, r3
 3974 001a 214A     		ldr	r2, .L230
 3975 001c 1344     		add	r3, r3, r2
 3976 001e 3B61     		str	r3, [r7, #16]
1310:/opt/XMClib/XMC_Peripheral_Library_v2.1.16/XMCLib/src/xmc_usbd.c ****   int32_t result;
1311:/opt/XMClib/XMC_Peripheral_Library_v2.1.16/XMCLib/src/xmc_usbd.c ****   if (!ep->isConfigured)
 3977              		.loc 1 1311 0
 3978 0020 3B69     		ldr	r3, [r7, #16]
 3979 0022 1B79     		ldrb	r3, [r3, #4]	@ zero_extendqisi2
 3980 0024 03F00403 		and	r3, r3, #4
 3981 0028 DBB2     		uxtb	r3, r3
 3982 002a 002B     		cmp	r3, #0
 3983 002c 02D1     		bne	.L225
1312:/opt/XMClib/XMC_Peripheral_Library_v2.1.16/XMCLib/src/xmc_usbd.c ****   {
1313:/opt/XMClib/XMC_Peripheral_Library_v2.1.16/XMCLib/src/xmc_usbd.c ****     result = (int32_t)XMC_USBD_STATUS_ERROR;
 3984              		.loc 1 1313 0
 3985 002e 0123     		movs	r3, #1
 3986 0030 7B61     		str	r3, [r7, #20]
 3987 0032 30E0     		b	.L226
 3988              	.L225:
1314:/opt/XMClib/XMC_Peripheral_Library_v2.1.16/XMCLib/src/xmc_usbd.c ****   }
1315:/opt/XMClib/XMC_Peripheral_Library_v2.1.16/XMCLib/src/xmc_usbd.c ****   else if (ep->inInUse == 1U)
 3989              		.loc 1 1315 0
 3990 0034 3B69     		ldr	r3, [r7, #16]
 3991 0036 5B68     		ldr	r3, [r3, #4]
 3992 0038 C3F3C003 		ubfx	r3, r3, #3, #1
 3993 003c DBB2     		uxtb	r3, r3
 3994 003e 012B     		cmp	r3, #1
 3995 0040 02D1     		bne	.L227
1316:/opt/XMClib/XMC_Peripheral_Library_v2.1.16/XMCLib/src/xmc_usbd.c ****   {
1317:/opt/XMClib/XMC_Peripheral_Library_v2.1.16/XMCLib/src/xmc_usbd.c ****     result=(int32_t)0;
 3996              		.loc 1 1317 0
 3997 0042 0023     		movs	r3, #0
 3998 0044 7B61     		str	r3, [r7, #20]
 3999 0046 26E0     		b	.L226
 4000              	.L227:
1318:/opt/XMClib/XMC_Peripheral_Library_v2.1.16/XMCLib/src/xmc_usbd.c ****   }
1319:/opt/XMClib/XMC_Peripheral_Library_v2.1.16/XMCLib/src/xmc_usbd.c ****   else
1320:/opt/XMClib/XMC_Peripheral_Library_v2.1.16/XMCLib/src/xmc_usbd.c ****   {
1321:/opt/XMClib/XMC_Peripheral_Library_v2.1.16/XMCLib/src/xmc_usbd.c ****     if (length > ep->inBufferSize)
 4001              		.loc 1 1321 0
 4002 0048 3B69     		ldr	r3, [r7, #16]
 4003 004a 1B6A     		ldr	r3, [r3, #32]
 4004 004c 7A68     		ldr	r2, [r7, #4]
 4005 004e 9A42     		cmp	r2, r3
 4006 0050 02D9     		bls	.L228
1322:/opt/XMClib/XMC_Peripheral_Library_v2.1.16/XMCLib/src/xmc_usbd.c ****     {
1323:/opt/XMClib/XMC_Peripheral_Library_v2.1.16/XMCLib/src/xmc_usbd.c ****       length = ep->inBufferSize;
 4007              		.loc 1 1323 0
 4008 0052 3B69     		ldr	r3, [r7, #16]
 4009 0054 1B6A     		ldr	r3, [r3, #32]
 4010 0056 7B60     		str	r3, [r7, #4]
 4011              	.L228:
1324:/opt/XMClib/XMC_Peripheral_Library_v2.1.16/XMCLib/src/xmc_usbd.c ****     }
1325:/opt/XMClib/XMC_Peripheral_Library_v2.1.16/XMCLib/src/xmc_usbd.c ****     /* copy data into input buffer for DMA and FIFO mode */
1326:/opt/XMClib/XMC_Peripheral_Library_v2.1.16/XMCLib/src/xmc_usbd.c **** 		memcpy(ep->inBuffer,(const void *)buffer,length);
 4012              		.loc 1 1326 0
 4013 0058 3B69     		ldr	r3, [r7, #16]
 4014 005a DB69     		ldr	r3, [r3, #28]
 4015 005c 7A68     		ldr	r2, [r7, #4]
 4016 005e B968     		ldr	r1, [r7, #8]
 4017 0060 1846     		mov	r0, r3
 4018 0062 FFF7FEFF 		bl	memcpy
1327:/opt/XMClib/XMC_Peripheral_Library_v2.1.16/XMCLib/src/xmc_usbd.c **** 		ep->xferBuffer = ep->inBuffer;
 4019              		.loc 1 1327 0
 4020 0066 3B69     		ldr	r3, [r7, #16]
 4021 0068 DA69     		ldr	r2, [r3, #28]
 4022 006a 3B69     		ldr	r3, [r7, #16]
 4023 006c 5A62     		str	r2, [r3, #36]
1328:/opt/XMClib/XMC_Peripheral_Library_v2.1.16/XMCLib/src/xmc_usbd.c ****     ep->xferTotal = length;
 4024              		.loc 1 1328 0
 4025 006e 3B69     		ldr	r3, [r7, #16]
 4026 0070 7A68     		ldr	r2, [r7, #4]
 4027 0072 1A63     		str	r2, [r3, #48]
1329:/opt/XMClib/XMC_Peripheral_Library_v2.1.16/XMCLib/src/xmc_usbd.c ****     /* set transfer values */
1330:/opt/XMClib/XMC_Peripheral_Library_v2.1.16/XMCLib/src/xmc_usbd.c ****     ep->xferLength = 0U;
 4028              		.loc 1 1330 0
 4029 0074 3B69     		ldr	r3, [r7, #16]
 4030 0076 0022     		movs	r2, #0
 4031 0078 9A62     		str	r2, [r3, #40]
1331:/opt/XMClib/XMC_Peripheral_Library_v2.1.16/XMCLib/src/xmc_usbd.c ****     ep->xferCount = 0U;
 4032              		.loc 1 1331 0
 4033 007a 3B69     		ldr	r3, [r7, #16]
 4034 007c 0022     		movs	r2, #0
 4035 007e DA62     		str	r2, [r3, #44]
1332:/opt/XMClib/XMC_Peripheral_Library_v2.1.16/XMCLib/src/xmc_usbd.c ****     ep->inInUse = 1U;
 4036              		.loc 1 1332 0
 4037 0080 3A69     		ldr	r2, [r7, #16]
 4038 0082 5368     		ldr	r3, [r2, #4]
 4039 0084 43F00803 		orr	r3, r3, #8
 4040 0088 5360     		str	r3, [r2, #4]
1333:/opt/XMClib/XMC_Peripheral_Library_v2.1.16/XMCLib/src/xmc_usbd.c ****     /* start the transfer */
1334:/opt/XMClib/XMC_Peripheral_Library_v2.1.16/XMCLib/src/xmc_usbd.c ****     XMC_USBD_lStartWriteXfer(ep);
 4041              		.loc 1 1334 0
 4042 008a 3869     		ldr	r0, [r7, #16]
 4043 008c FFF7FEFF 		bl	XMC_USBD_lStartWriteXfer
1335:/opt/XMClib/XMC_Peripheral_Library_v2.1.16/XMCLib/src/xmc_usbd.c ****     result=(int32_t)ep->xferTotal;
 4044              		.loc 1 1335 0
 4045 0090 3B69     		ldr	r3, [r7, #16]
 4046 0092 1B6B     		ldr	r3, [r3, #48]
 4047 0094 7B61     		str	r3, [r7, #20]
 4048              	.L226:
1336:/opt/XMClib/XMC_Peripheral_Library_v2.1.16/XMCLib/src/xmc_usbd.c ****   }
1337:/opt/XMClib/XMC_Peripheral_Library_v2.1.16/XMCLib/src/xmc_usbd.c ****   return result;
 4049              		.loc 1 1337 0
 4050 0096 7B69     		ldr	r3, [r7, #20]
1338:/opt/XMClib/XMC_Peripheral_Library_v2.1.16/XMCLib/src/xmc_usbd.c **** }
 4051              		.loc 1 1338 0
 4052 0098 1846     		mov	r0, r3
 4053 009a 1837     		adds	r7, r7, #24
 4054              	.LCFI175:
 4055              		.cfi_def_cfa_offset 8
 4056 009c BD46     		mov	sp, r7
 4057              	.LCFI176:
 4058              		.cfi_def_cfa_register 13
 4059              		@ sp needed
 4060 009e 80BD     		pop	{r7, pc}
 4061              	.L231:
 4062              		.align	2
 4063              	.L230:
 4064 00a0 00000000 		.word	xmc_device
 4065              		.cfi_endproc
 4066              	.LFE194:
 4068              		.section	.text.XMC_USBD_DeviceSetAddress,"ax",%progbits
 4069              		.align	1
 4070              		.global	XMC_USBD_DeviceSetAddress
 4071              		.syntax unified
 4072              		.thumb
 4073              		.thumb_func
 4074              		.fpu fpv4-sp-d16
 4076              	XMC_USBD_DeviceSetAddress:
 4077              	.LFB195:
1339:/opt/XMClib/XMC_Peripheral_Library_v2.1.16/XMCLib/src/xmc_usbd.c **** 
1340:/opt/XMClib/XMC_Peripheral_Library_v2.1.16/XMCLib/src/xmc_usbd.c **** /**
1341:/opt/XMClib/XMC_Peripheral_Library_v2.1.16/XMCLib/src/xmc_usbd.c ****  * Sets the USB device address.
1342:/opt/XMClib/XMC_Peripheral_Library_v2.1.16/XMCLib/src/xmc_usbd.c ****  **/
1343:/opt/XMClib/XMC_Peripheral_Library_v2.1.16/XMCLib/src/xmc_usbd.c **** XMC_USBD_STATUS_t XMC_USBD_DeviceSetAddress(const uint8_t address,const XMC_USBD_SET_ADDRESS_STAGE_
1344:/opt/XMClib/XMC_Peripheral_Library_v2.1.16/XMCLib/src/xmc_usbd.c **** {
 4078              		.loc 1 1344 0
 4079              		.cfi_startproc
 4080              		@ args = 0, pretend = 0, frame = 16
 4081              		@ frame_needed = 1, uses_anonymous_args = 0
 4082              		@ link register save eliminated.
 4083 0000 80B4     		push	{r7}
 4084              	.LCFI177:
 4085              		.cfi_def_cfa_offset 4
 4086              		.cfi_offset 7, -4
 4087 0002 85B0     		sub	sp, sp, #20
 4088              	.LCFI178:
 4089              		.cfi_def_cfa_offset 24
 4090 0004 00AF     		add	r7, sp, #0
 4091              	.LCFI179:
 4092              		.cfi_def_cfa_register 7
 4093 0006 0346     		mov	r3, r0
 4094 0008 0A46     		mov	r2, r1
 4095 000a FB71     		strb	r3, [r7, #7]
 4096 000c 1346     		mov	r3, r2
 4097 000e BB71     		strb	r3, [r7, #6]
1345:/opt/XMClib/XMC_Peripheral_Library_v2.1.16/XMCLib/src/xmc_usbd.c ****   dcfg_data_t data;
1346:/opt/XMClib/XMC_Peripheral_Library_v2.1.16/XMCLib/src/xmc_usbd.c ****   data.d32 = xmc_device.device_register->dcfg;
 4098              		.loc 1 1346 0
 4099 0010 0D4B     		ldr	r3, .L235
 4100 0012 D3F8A431 		ldr	r3, [r3, #420]
 4101 0016 1B68     		ldr	r3, [r3]
 4102 0018 FB60     		str	r3, [r7, #12]
1347:/opt/XMClib/XMC_Peripheral_Library_v2.1.16/XMCLib/src/xmc_usbd.c ****   if (stage == XMC_USBD_SET_ADDRESS_STAGE_SETUP)
 4103              		.loc 1 1347 0
 4104 001a BB79     		ldrb	r3, [r7, #6]	@ zero_extendqisi2
 4105 001c 002B     		cmp	r3, #0
 4106 001e 0CD1     		bne	.L233
1348:/opt/XMClib/XMC_Peripheral_Library_v2.1.16/XMCLib/src/xmc_usbd.c ****   {
1349:/opt/XMClib/XMC_Peripheral_Library_v2.1.16/XMCLib/src/xmc_usbd.c ****     data.b.devaddr = address;
 4107              		.loc 1 1349 0
 4108 0020 FB79     		ldrb	r3, [r7, #7]
 4109 0022 03F07F03 		and	r3, r3, #127
 4110 0026 DAB2     		uxtb	r2, r3
 4111 0028 BB89     		ldrh	r3, [r7, #12]	@ movhi
 4112 002a 62F30A13 		bfi	r3, r2, #4, #7
 4113 002e BB81     		strh	r3, [r7, #12]	@ movhi
1350:/opt/XMClib/XMC_Peripheral_Library_v2.1.16/XMCLib/src/xmc_usbd.c ****     xmc_device.device_register->dcfg = data.d32;
 4114              		.loc 1 1350 0
 4115 0030 054B     		ldr	r3, .L235
 4116 0032 D3F8A431 		ldr	r3, [r3, #420]
 4117 0036 FA68     		ldr	r2, [r7, #12]
 4118 0038 1A60     		str	r2, [r3]
 4119              	.L233:
1351:/opt/XMClib/XMC_Peripheral_Library_v2.1.16/XMCLib/src/xmc_usbd.c ****   }
1352:/opt/XMClib/XMC_Peripheral_Library_v2.1.16/XMCLib/src/xmc_usbd.c **** 	return XMC_USBD_STATUS_OK;
 4120              		.loc 1 1352 0
 4121 003a 0023     		movs	r3, #0
1353:/opt/XMClib/XMC_Peripheral_Library_v2.1.16/XMCLib/src/xmc_usbd.c **** }
 4122              		.loc 1 1353 0
 4123 003c 1846     		mov	r0, r3
 4124 003e 1437     		adds	r7, r7, #20
 4125              	.LCFI180:
 4126              		.cfi_def_cfa_offset 4
 4127 0040 BD46     		mov	sp, r7
 4128              	.LCFI181:
 4129              		.cfi_def_cfa_register 13
 4130              		@ sp needed
 4131 0042 5DF8047B 		ldr	r7, [sp], #4
 4132              	.LCFI182:
 4133              		.cfi_restore 7
 4134              		.cfi_def_cfa_offset 0
 4135 0046 7047     		bx	lr
 4136              	.L236:
 4137              		.align	2
 4138              	.L235:
 4139 0048 00000000 		.word	xmc_device
 4140              		.cfi_endproc
 4141              	.LFE195:
 4143              		.section	.text.XMC_USBD_EndpointStall,"ax",%progbits
 4144              		.align	1
 4145              		.global	XMC_USBD_EndpointStall
 4146              		.syntax unified
 4147              		.thumb
 4148              		.thumb_func
 4149              		.fpu fpv4-sp-d16
 4151              	XMC_USBD_EndpointStall:
 4152              	.LFB196:
1354:/opt/XMClib/XMC_Peripheral_Library_v2.1.16/XMCLib/src/xmc_usbd.c **** 
1355:/opt/XMClib/XMC_Peripheral_Library_v2.1.16/XMCLib/src/xmc_usbd.c **** /**
1356:/opt/XMClib/XMC_Peripheral_Library_v2.1.16/XMCLib/src/xmc_usbd.c ****  * Set/clear stall on the selected endpoint.
1357:/opt/XMClib/XMC_Peripheral_Library_v2.1.16/XMCLib/src/xmc_usbd.c ****  **/
1358:/opt/XMClib/XMC_Peripheral_Library_v2.1.16/XMCLib/src/xmc_usbd.c **** XMC_USBD_STATUS_t XMC_USBD_EndpointStall(const uint8_t ep_addr, const bool stall) 
1359:/opt/XMClib/XMC_Peripheral_Library_v2.1.16/XMCLib/src/xmc_usbd.c **** {
 4153              		.loc 1 1359 0
 4154              		.cfi_startproc
 4155              		@ args = 0, pretend = 0, frame = 16
 4156              		@ frame_needed = 1, uses_anonymous_args = 0
 4157              		@ link register save eliminated.
 4158 0000 80B4     		push	{r7}
 4159              	.LCFI183:
 4160              		.cfi_def_cfa_offset 4
 4161              		.cfi_offset 7, -4
 4162 0002 85B0     		sub	sp, sp, #20
 4163              	.LCFI184:
 4164              		.cfi_def_cfa_offset 24
 4165 0004 00AF     		add	r7, sp, #0
 4166              	.LCFI185:
 4167              		.cfi_def_cfa_register 7
 4168 0006 0346     		mov	r3, r0
 4169 0008 0A46     		mov	r2, r1
 4170 000a FB71     		strb	r3, [r7, #7]
 4171 000c 1346     		mov	r3, r2
 4172 000e BB71     		strb	r3, [r7, #6]
1360:/opt/XMClib/XMC_Peripheral_Library_v2.1.16/XMCLib/src/xmc_usbd.c ****   depctl_data_t data;
1361:/opt/XMClib/XMC_Peripheral_Library_v2.1.16/XMCLib/src/xmc_usbd.c ****   XMC_USBD_EP_t *ep = &xmc_device.ep[(ep_addr & (uint8_t)XMC_USBD_EP_NUM_MASK)];
 4173              		.loc 1 1361 0
 4174 0010 FB79     		ldrb	r3, [r7, #7]	@ zero_extendqisi2
 4175 0012 03F00F03 		and	r3, r3, #15
 4176 0016 3422     		movs	r2, #52
 4177 0018 02FB03F3 		mul	r3, r2, r3
 4178 001c 4A4A     		ldr	r2, .L245
 4179 001e 1344     		add	r3, r3, r2
 4180 0020 FB60     		str	r3, [r7, #12]
1362:/opt/XMClib/XMC_Peripheral_Library_v2.1.16/XMCLib/src/xmc_usbd.c ****   if (stall)
 4181              		.loc 1 1362 0
 4182 0022 BB79     		ldrb	r3, [r7, #6]	@ zero_extendqisi2
 4183 0024 002B     		cmp	r3, #0
 4184 0026 40D0     		beq	.L238
1363:/opt/XMClib/XMC_Peripheral_Library_v2.1.16/XMCLib/src/xmc_usbd.c ****   {
1364:/opt/XMClib/XMC_Peripheral_Library_v2.1.16/XMCLib/src/xmc_usbd.c ****     if (ep_addr & (uint8_t)XMC_USBD_ENDPOINT_DIRECTION_MASK)
 4185              		.loc 1 1364 0
 4186 0028 97F90730 		ldrsb	r3, [r7, #7]
 4187 002c 002B     		cmp	r3, #0
 4188 002e 1ADA     		bge	.L239
1365:/opt/XMClib/XMC_Peripheral_Library_v2.1.16/XMCLib/src/xmc_usbd.c ****     {
1366:/opt/XMClib/XMC_Peripheral_Library_v2.1.16/XMCLib/src/xmc_usbd.c ****       /*set stall bit */
1367:/opt/XMClib/XMC_Peripheral_Library_v2.1.16/XMCLib/src/xmc_usbd.c ****       data.d32 = xmc_device.endpoint_in_register[ep->address_u.address_st.number]->diepctl;
 4189              		.loc 1 1367 0
 4190 0030 FB68     		ldr	r3, [r7, #12]
 4191 0032 1B78     		ldrb	r3, [r3]
 4192 0034 C3F30303 		ubfx	r3, r3, #0, #4
 4193 0038 DBB2     		uxtb	r3, r3
 4194 003a 434A     		ldr	r2, .L245
 4195 003c 6A33     		adds	r3, r3, #106
 4196 003e 52F82330 		ldr	r3, [r2, r3, lsl #2]
 4197 0042 1B68     		ldr	r3, [r3]
 4198 0044 BB60     		str	r3, [r7, #8]
1368:/opt/XMClib/XMC_Peripheral_Library_v2.1.16/XMCLib/src/xmc_usbd.c ****       data.b.stall = 1U;
 4199              		.loc 1 1368 0
 4200 0046 BB7A     		ldrb	r3, [r7, #10]
 4201 0048 43F02003 		orr	r3, r3, #32
 4202 004c BB72     		strb	r3, [r7, #10]
1369:/opt/XMClib/XMC_Peripheral_Library_v2.1.16/XMCLib/src/xmc_usbd.c ****       xmc_device.endpoint_in_register[ep->address_u.address_st.number]->diepctl = data.d32;
 4203              		.loc 1 1369 0
 4204 004e FB68     		ldr	r3, [r7, #12]
 4205 0050 1B78     		ldrb	r3, [r3]
 4206 0052 C3F30303 		ubfx	r3, r3, #0, #4
 4207 0056 DBB2     		uxtb	r3, r3
 4208 0058 3B4A     		ldr	r2, .L245
 4209 005a 6A33     		adds	r3, r3, #106
 4210 005c 52F82330 		ldr	r3, [r2, r3, lsl #2]
 4211 0060 BA68     		ldr	r2, [r7, #8]
 4212 0062 1A60     		str	r2, [r3]
 4213 0064 1BE0     		b	.L240
 4214              	.L239:
1370:/opt/XMClib/XMC_Peripheral_Library_v2.1.16/XMCLib/src/xmc_usbd.c ****     }
1371:/opt/XMClib/XMC_Peripheral_Library_v2.1.16/XMCLib/src/xmc_usbd.c ****     else
1372:/opt/XMClib/XMC_Peripheral_Library_v2.1.16/XMCLib/src/xmc_usbd.c ****     {
1373:/opt/XMClib/XMC_Peripheral_Library_v2.1.16/XMCLib/src/xmc_usbd.c ****       /*set stall bit */
1374:/opt/XMClib/XMC_Peripheral_Library_v2.1.16/XMCLib/src/xmc_usbd.c ****       data.d32 = xmc_device.endpoint_out_register[ep->address_u.address_st.number]->doepctl;
 4215              		.loc 1 1374 0
 4216 0066 FB68     		ldr	r3, [r7, #12]
 4217 0068 1B78     		ldrb	r3, [r3]
 4218 006a C3F30303 		ubfx	r3, r3, #0, #4
 4219 006e DBB2     		uxtb	r3, r3
 4220 0070 354A     		ldr	r2, .L245
 4221 0072 7033     		adds	r3, r3, #112
 4222 0074 9B00     		lsls	r3, r3, #2
 4223 0076 1344     		add	r3, r3, r2
 4224 0078 5B68     		ldr	r3, [r3, #4]
 4225 007a 1B68     		ldr	r3, [r3]
 4226 007c BB60     		str	r3, [r7, #8]
1375:/opt/XMClib/XMC_Peripheral_Library_v2.1.16/XMCLib/src/xmc_usbd.c ****       data.b.stall = 1U;
 4227              		.loc 1 1375 0
 4228 007e BB7A     		ldrb	r3, [r7, #10]
 4229 0080 43F02003 		orr	r3, r3, #32
 4230 0084 BB72     		strb	r3, [r7, #10]
1376:/opt/XMClib/XMC_Peripheral_Library_v2.1.16/XMCLib/src/xmc_usbd.c ****       xmc_device.endpoint_out_register[ep->address_u.address_st.number]->doepctl = data.d32;
 4231              		.loc 1 1376 0
 4232 0086 FB68     		ldr	r3, [r7, #12]
 4233 0088 1B78     		ldrb	r3, [r3]
 4234 008a C3F30303 		ubfx	r3, r3, #0, #4
 4235 008e DBB2     		uxtb	r3, r3
 4236 0090 2D4A     		ldr	r2, .L245
 4237 0092 7033     		adds	r3, r3, #112
 4238 0094 9B00     		lsls	r3, r3, #2
 4239 0096 1344     		add	r3, r3, r2
 4240 0098 5B68     		ldr	r3, [r3, #4]
 4241 009a BA68     		ldr	r2, [r7, #8]
 4242 009c 1A60     		str	r2, [r3]
 4243              	.L240:
1377:/opt/XMClib/XMC_Peripheral_Library_v2.1.16/XMCLib/src/xmc_usbd.c ****     }
1378:/opt/XMClib/XMC_Peripheral_Library_v2.1.16/XMCLib/src/xmc_usbd.c ****     ep->isStalled = 1U;
 4244              		.loc 1 1378 0
 4245 009e FA68     		ldr	r2, [r7, #12]
 4246 00a0 1379     		ldrb	r3, [r2, #4]
 4247 00a2 43F02003 		orr	r3, r3, #32
 4248 00a6 1371     		strb	r3, [r2, #4]
 4249 00a8 47E0     		b	.L241
 4250              	.L238:
1379:/opt/XMClib/XMC_Peripheral_Library_v2.1.16/XMCLib/src/xmc_usbd.c ****   }
1380:/opt/XMClib/XMC_Peripheral_Library_v2.1.16/XMCLib/src/xmc_usbd.c ****   else
1381:/opt/XMClib/XMC_Peripheral_Library_v2.1.16/XMCLib/src/xmc_usbd.c ****   {
1382:/opt/XMClib/XMC_Peripheral_Library_v2.1.16/XMCLib/src/xmc_usbd.c ****     /* just clear stall bit */
1383:/opt/XMClib/XMC_Peripheral_Library_v2.1.16/XMCLib/src/xmc_usbd.c **** 		if (ep_addr & (uint8_t)XMC_USBD_ENDPOINT_DIRECTION_MASK)
 4251              		.loc 1 1383 0
 4252 00aa 97F90730 		ldrsb	r3, [r7, #7]
 4253 00ae 002B     		cmp	r3, #0
 4254 00b0 1EDA     		bge	.L242
1384:/opt/XMClib/XMC_Peripheral_Library_v2.1.16/XMCLib/src/xmc_usbd.c **** 		{
1385:/opt/XMClib/XMC_Peripheral_Library_v2.1.16/XMCLib/src/xmc_usbd.c **** 			data.d32 = xmc_device.endpoint_in_register[ep->address_u.address_st.number]->diepctl;
 4255              		.loc 1 1385 0
 4256 00b2 FB68     		ldr	r3, [r7, #12]
 4257 00b4 1B78     		ldrb	r3, [r3]
 4258 00b6 C3F30303 		ubfx	r3, r3, #0, #4
 4259 00ba DBB2     		uxtb	r3, r3
 4260 00bc 224A     		ldr	r2, .L245
 4261 00be 6A33     		adds	r3, r3, #106
 4262 00c0 52F82330 		ldr	r3, [r2, r3, lsl #2]
 4263 00c4 1B68     		ldr	r3, [r3]
 4264 00c6 BB60     		str	r3, [r7, #8]
1386:/opt/XMClib/XMC_Peripheral_Library_v2.1.16/XMCLib/src/xmc_usbd.c **** 			data.b.stall = 0U;
 4265              		.loc 1 1386 0
 4266 00c8 BB7A     		ldrb	r3, [r7, #10]
 4267 00ca 6FF34513 		bfc	r3, #5, #1
 4268 00ce BB72     		strb	r3, [r7, #10]
1387:/opt/XMClib/XMC_Peripheral_Library_v2.1.16/XMCLib/src/xmc_usbd.c **** 			data.b.setd0pid = 1U; /* reset pid to 0 */
 4269              		.loc 1 1387 0
 4270 00d0 FB7A     		ldrb	r3, [r7, #11]
 4271 00d2 43F01003 		orr	r3, r3, #16
 4272 00d6 FB72     		strb	r3, [r7, #11]
1388:/opt/XMClib/XMC_Peripheral_Library_v2.1.16/XMCLib/src/xmc_usbd.c **** 			xmc_device.endpoint_in_register[ep->address_u.address_st.number]->diepctl = data.d32;
 4273              		.loc 1 1388 0
 4274 00d8 FB68     		ldr	r3, [r7, #12]
 4275 00da 1B78     		ldrb	r3, [r3]
 4276 00dc C3F30303 		ubfx	r3, r3, #0, #4
 4277 00e0 DBB2     		uxtb	r3, r3
 4278 00e2 194A     		ldr	r2, .L245
 4279 00e4 6A33     		adds	r3, r3, #106
 4280 00e6 52F82330 		ldr	r3, [r2, r3, lsl #2]
 4281 00ea BA68     		ldr	r2, [r7, #8]
 4282 00ec 1A60     		str	r2, [r3]
 4283 00ee 1FE0     		b	.L243
 4284              	.L242:
1389:/opt/XMClib/XMC_Peripheral_Library_v2.1.16/XMCLib/src/xmc_usbd.c **** 		}
1390:/opt/XMClib/XMC_Peripheral_Library_v2.1.16/XMCLib/src/xmc_usbd.c **** 		else
1391:/opt/XMClib/XMC_Peripheral_Library_v2.1.16/XMCLib/src/xmc_usbd.c **** 		{
1392:/opt/XMClib/XMC_Peripheral_Library_v2.1.16/XMCLib/src/xmc_usbd.c **** 			data.d32 = xmc_device.endpoint_out_register[ep->address_u.address_st.number]->doepctl;
 4285              		.loc 1 1392 0
 4286 00f0 FB68     		ldr	r3, [r7, #12]
 4287 00f2 1B78     		ldrb	r3, [r3]
 4288 00f4 C3F30303 		ubfx	r3, r3, #0, #4
 4289 00f8 DBB2     		uxtb	r3, r3
 4290 00fa 134A     		ldr	r2, .L245
 4291 00fc 7033     		adds	r3, r3, #112
 4292 00fe 9B00     		lsls	r3, r3, #2
 4293 0100 1344     		add	r3, r3, r2
 4294 0102 5B68     		ldr	r3, [r3, #4]
 4295 0104 1B68     		ldr	r3, [r3]
 4296 0106 BB60     		str	r3, [r7, #8]
1393:/opt/XMClib/XMC_Peripheral_Library_v2.1.16/XMCLib/src/xmc_usbd.c **** 			data.b.stall = 0U;
 4297              		.loc 1 1393 0
 4298 0108 BB7A     		ldrb	r3, [r7, #10]
 4299 010a 6FF34513 		bfc	r3, #5, #1
 4300 010e BB72     		strb	r3, [r7, #10]
1394:/opt/XMClib/XMC_Peripheral_Library_v2.1.16/XMCLib/src/xmc_usbd.c **** 			data.b.setd0pid = 1U; /* reset pid to 0 */
 4301              		.loc 1 1394 0
 4302 0110 FB7A     		ldrb	r3, [r7, #11]
 4303 0112 43F01003 		orr	r3, r3, #16
 4304 0116 FB72     		strb	r3, [r7, #11]
1395:/opt/XMClib/XMC_Peripheral_Library_v2.1.16/XMCLib/src/xmc_usbd.c **** 			xmc_device.endpoint_out_register[ep->address_u.address_st.number]->doepctl = data.d32;
 4305              		.loc 1 1395 0
 4306 0118 FB68     		ldr	r3, [r7, #12]
 4307 011a 1B78     		ldrb	r3, [r3]
 4308 011c C3F30303 		ubfx	r3, r3, #0, #4
 4309 0120 DBB2     		uxtb	r3, r3
 4310 0122 094A     		ldr	r2, .L245
 4311 0124 7033     		adds	r3, r3, #112
 4312 0126 9B00     		lsls	r3, r3, #2
 4313 0128 1344     		add	r3, r3, r2
 4314 012a 5B68     		ldr	r3, [r3, #4]
 4315 012c BA68     		ldr	r2, [r7, #8]
 4316 012e 1A60     		str	r2, [r3]
 4317              	.L243:
1396:/opt/XMClib/XMC_Peripheral_Library_v2.1.16/XMCLib/src/xmc_usbd.c **** 		}
1397:/opt/XMClib/XMC_Peripheral_Library_v2.1.16/XMCLib/src/xmc_usbd.c **** 		ep->isStalled = 0U;
 4318              		.loc 1 1397 0
 4319 0130 FA68     		ldr	r2, [r7, #12]
 4320 0132 1379     		ldrb	r3, [r2, #4]
 4321 0134 6FF34513 		bfc	r3, #5, #1
 4322 0138 1371     		strb	r3, [r2, #4]
 4323              	.L241:
1398:/opt/XMClib/XMC_Peripheral_Library_v2.1.16/XMCLib/src/xmc_usbd.c **** 	}
1399:/opt/XMClib/XMC_Peripheral_Library_v2.1.16/XMCLib/src/xmc_usbd.c **** 	return XMC_USBD_STATUS_OK;
 4324              		.loc 1 1399 0
 4325 013a 0023     		movs	r3, #0
1400:/opt/XMClib/XMC_Peripheral_Library_v2.1.16/XMCLib/src/xmc_usbd.c **** }
 4326              		.loc 1 1400 0
 4327 013c 1846     		mov	r0, r3
 4328 013e 1437     		adds	r7, r7, #20
 4329              	.LCFI186:
 4330              		.cfi_def_cfa_offset 4
 4331 0140 BD46     		mov	sp, r7
 4332              	.LCFI187:
 4333              		.cfi_def_cfa_register 13
 4334              		@ sp needed
 4335 0142 5DF8047B 		ldr	r7, [sp], #4
 4336              	.LCFI188:
 4337              		.cfi_restore 7
 4338              		.cfi_def_cfa_offset 0
 4339 0146 7047     		bx	lr
 4340              	.L246:
 4341              		.align	2
 4342              	.L245:
 4343 0148 00000000 		.word	xmc_device
 4344              		.cfi_endproc
 4345              	.LFE196:
 4347              		.section	.text.XMC_USBD_EndpointAbort,"ax",%progbits
 4348              		.align	1
 4349              		.global	XMC_USBD_EndpointAbort
 4350              		.syntax unified
 4351              		.thumb
 4352              		.thumb_func
 4353              		.fpu fpv4-sp-d16
 4355              	XMC_USBD_EndpointAbort:
 4356              	.LFB197:
1401:/opt/XMClib/XMC_Peripheral_Library_v2.1.16/XMCLib/src/xmc_usbd.c **** 
1402:/opt/XMClib/XMC_Peripheral_Library_v2.1.16/XMCLib/src/xmc_usbd.c **** /**
1403:/opt/XMClib/XMC_Peripheral_Library_v2.1.16/XMCLib/src/xmc_usbd.c ****  * Aborts the data transfer on the selected endpoint
1404:/opt/XMClib/XMC_Peripheral_Library_v2.1.16/XMCLib/src/xmc_usbd.c ****  **/
1405:/opt/XMClib/XMC_Peripheral_Library_v2.1.16/XMCLib/src/xmc_usbd.c **** XMC_USBD_STATUS_t XMC_USBD_EndpointAbort(const uint8_t ep_addr) {
 4357              		.loc 1 1405 0
 4358              		.cfi_startproc
 4359              		@ args = 0, pretend = 0, frame = 16
 4360              		@ frame_needed = 1, uses_anonymous_args = 0
 4361              		@ link register save eliminated.
 4362 0000 80B4     		push	{r7}
 4363              	.LCFI189:
 4364              		.cfi_def_cfa_offset 4
 4365              		.cfi_offset 7, -4
 4366 0002 85B0     		sub	sp, sp, #20
 4367              	.LCFI190:
 4368              		.cfi_def_cfa_offset 24
 4369 0004 00AF     		add	r7, sp, #0
 4370              	.LCFI191:
 4371              		.cfi_def_cfa_register 7
 4372 0006 0346     		mov	r3, r0
 4373 0008 FB71     		strb	r3, [r7, #7]
1406:/opt/XMClib/XMC_Peripheral_Library_v2.1.16/XMCLib/src/xmc_usbd.c ****   XMC_USBD_EP_t *ep = &xmc_device.ep[ep_addr & (uint8_t)XMC_USBD_ENDPOINT_NUMBER_MASK];
 4374              		.loc 1 1406 0
 4375 000a FB79     		ldrb	r3, [r7, #7]	@ zero_extendqisi2
 4376 000c 03F00F03 		and	r3, r3, #15
 4377 0010 3422     		movs	r2, #52
 4378 0012 02FB03F3 		mul	r3, r2, r3
 4379 0016 1B4A     		ldr	r2, .L251
 4380 0018 1344     		add	r3, r3, r2
 4381 001a FB60     		str	r3, [r7, #12]
1407:/opt/XMClib/XMC_Peripheral_Library_v2.1.16/XMCLib/src/xmc_usbd.c ****   if (ep->address_u.address_st.direction)
 4382              		.loc 1 1407 0
 4383 001c FB68     		ldr	r3, [r7, #12]
 4384 001e 1B78     		ldrb	r3, [r3]	@ zero_extendqisi2
 4385 0020 23F07F03 		bic	r3, r3, #127
 4386 0024 DBB2     		uxtb	r3, r3
 4387 0026 002B     		cmp	r3, #0
 4388 0028 04D0     		beq	.L248
1408:/opt/XMClib/XMC_Peripheral_Library_v2.1.16/XMCLib/src/xmc_usbd.c ****   {
1409:/opt/XMClib/XMC_Peripheral_Library_v2.1.16/XMCLib/src/xmc_usbd.c ****     ep->inInUse = 0U;
 4389              		.loc 1 1409 0
 4390 002a FA68     		ldr	r2, [r7, #12]
 4391 002c 5368     		ldr	r3, [r2, #4]
 4392 002e 6FF3C303 		bfc	r3, #3, #1
 4393 0032 5360     		str	r3, [r2, #4]
 4394              	.L248:
1410:/opt/XMClib/XMC_Peripheral_Library_v2.1.16/XMCLib/src/xmc_usbd.c ****   }
1411:/opt/XMClib/XMC_Peripheral_Library_v2.1.16/XMCLib/src/xmc_usbd.c ****   if (!ep->address_u.address_st.direction)
 4395              		.loc 1 1411 0
 4396 0034 FB68     		ldr	r3, [r7, #12]
 4397 0036 1B78     		ldrb	r3, [r3]	@ zero_extendqisi2
 4398 0038 23F07F03 		bic	r3, r3, #127
 4399 003c DBB2     		uxtb	r3, r3
 4400 003e 002B     		cmp	r3, #0
 4401 0040 04D1     		bne	.L249
1412:/opt/XMClib/XMC_Peripheral_Library_v2.1.16/XMCLib/src/xmc_usbd.c ****   {
1413:/opt/XMClib/XMC_Peripheral_Library_v2.1.16/XMCLib/src/xmc_usbd.c ****     ep->outInUse = 0U;
 4402              		.loc 1 1413 0
 4403 0042 FA68     		ldr	r2, [r7, #12]
 4404 0044 5368     		ldr	r3, [r2, #4]
 4405 0046 6FF30413 		bfc	r3, #4, #1
 4406 004a 5360     		str	r3, [r2, #4]
 4407              	.L249:
1414:/opt/XMClib/XMC_Peripheral_Library_v2.1.16/XMCLib/src/xmc_usbd.c ****   }
1415:/opt/XMClib/XMC_Peripheral_Library_v2.1.16/XMCLib/src/xmc_usbd.c ****   ep->isStalled = 0U;
 4408              		.loc 1 1415 0
 4409 004c FA68     		ldr	r2, [r7, #12]
 4410 004e 1379     		ldrb	r3, [r2, #4]
 4411 0050 6FF34513 		bfc	r3, #5, #1
 4412 0054 1371     		strb	r3, [r2, #4]
1416:/opt/XMClib/XMC_Peripheral_Library_v2.1.16/XMCLib/src/xmc_usbd.c ****   ep->outBytesAvailable = 0U;
 4413              		.loc 1 1416 0
 4414 0056 FB68     		ldr	r3, [r7, #12]
 4415 0058 0022     		movs	r2, #0
 4416 005a 1A61     		str	r2, [r3, #16]
1417:/opt/XMClib/XMC_Peripheral_Library_v2.1.16/XMCLib/src/xmc_usbd.c ****   ep->outOffset = 0U;
 4417              		.loc 1 1417 0
 4418 005c FB68     		ldr	r3, [r7, #12]
 4419 005e 0022     		movs	r2, #0
 4420 0060 9A61     		str	r2, [r3, #24]
1418:/opt/XMClib/XMC_Peripheral_Library_v2.1.16/XMCLib/src/xmc_usbd.c ****   ep->xferLength = 0U;
 4421              		.loc 1 1418 0
 4422 0062 FB68     		ldr	r3, [r7, #12]
 4423 0064 0022     		movs	r2, #0
 4424 0066 9A62     		str	r2, [r3, #40]
1419:/opt/XMClib/XMC_Peripheral_Library_v2.1.16/XMCLib/src/xmc_usbd.c ****   ep->xferCount = 0U;
 4425              		.loc 1 1419 0
 4426 0068 FB68     		ldr	r3, [r7, #12]
 4427 006a 0022     		movs	r2, #0
 4428 006c DA62     		str	r2, [r3, #44]
1420:/opt/XMClib/XMC_Peripheral_Library_v2.1.16/XMCLib/src/xmc_usbd.c ****   ep->xferTotal = 0U;
 4429              		.loc 1 1420 0
 4430 006e FB68     		ldr	r3, [r7, #12]
 4431 0070 0022     		movs	r2, #0
 4432 0072 1A63     		str	r2, [r3, #48]
1421:/opt/XMClib/XMC_Peripheral_Library_v2.1.16/XMCLib/src/xmc_usbd.c **** 
1422:/opt/XMClib/XMC_Peripheral_Library_v2.1.16/XMCLib/src/xmc_usbd.c ****   return XMC_USBD_STATUS_OK;
 4433              		.loc 1 1422 0
 4434 0074 0023     		movs	r3, #0
1423:/opt/XMClib/XMC_Peripheral_Library_v2.1.16/XMCLib/src/xmc_usbd.c **** }
 4435              		.loc 1 1423 0
 4436 0076 1846     		mov	r0, r3
 4437 0078 1437     		adds	r7, r7, #20
 4438              	.LCFI192:
 4439              		.cfi_def_cfa_offset 4
 4440 007a BD46     		mov	sp, r7
 4441              	.LCFI193:
 4442              		.cfi_def_cfa_register 13
 4443              		@ sp needed
 4444 007c 5DF8047B 		ldr	r7, [sp], #4
 4445              	.LCFI194:
 4446              		.cfi_restore 7
 4447              		.cfi_def_cfa_offset 0
 4448 0080 7047     		bx	lr
 4449              	.L252:
 4450 0082 00BF     		.align	2
 4451              	.L251:
 4452 0084 00000000 		.word	xmc_device
 4453              		.cfi_endproc
 4454              	.LFE197:
 4456              		.section	.text.XMC_USBD_EndpointConfigure,"ax",%progbits
 4457              		.align	1
 4458              		.global	XMC_USBD_EndpointConfigure
 4459              		.syntax unified
 4460              		.thumb
 4461              		.thumb_func
 4462              		.fpu fpv4-sp-d16
 4464              	XMC_USBD_EndpointConfigure:
 4465              	.LFB198:
1424:/opt/XMClib/XMC_Peripheral_Library_v2.1.16/XMCLib/src/xmc_usbd.c **** 
1425:/opt/XMClib/XMC_Peripheral_Library_v2.1.16/XMCLib/src/xmc_usbd.c **** /**
1426:/opt/XMClib/XMC_Peripheral_Library_v2.1.16/XMCLib/src/xmc_usbd.c ****  * Configures the given endpoint
1427:/opt/XMClib/XMC_Peripheral_Library_v2.1.16/XMCLib/src/xmc_usbd.c ****  **/
1428:/opt/XMClib/XMC_Peripheral_Library_v2.1.16/XMCLib/src/xmc_usbd.c **** XMC_USBD_STATUS_t XMC_USBD_EndpointConfigure(const uint8_t ep_addr,
1429:/opt/XMClib/XMC_Peripheral_Library_v2.1.16/XMCLib/src/xmc_usbd.c **** 		                                     const XMC_USBD_ENDPOINT_TYPE_t ep_type,
1430:/opt/XMClib/XMC_Peripheral_Library_v2.1.16/XMCLib/src/xmc_usbd.c **** 		                                     const uint16_t ep_max_packet_size) 
1431:/opt/XMClib/XMC_Peripheral_Library_v2.1.16/XMCLib/src/xmc_usbd.c **** {
 4466              		.loc 1 1431 0
 4467              		.cfi_startproc
 4468              		@ args = 0, pretend = 0, frame = 24
 4469              		@ frame_needed = 1, uses_anonymous_args = 0
 4470 0000 80B5     		push	{r7, lr}
 4471              	.LCFI195:
 4472              		.cfi_def_cfa_offset 8
 4473              		.cfi_offset 7, -8
 4474              		.cfi_offset 14, -4
 4475 0002 86B0     		sub	sp, sp, #24
 4476              	.LCFI196:
 4477              		.cfi_def_cfa_offset 32
 4478 0004 00AF     		add	r7, sp, #0
 4479              	.LCFI197:
 4480              		.cfi_def_cfa_register 7
 4481 0006 0346     		mov	r3, r0
 4482 0008 FB71     		strb	r3, [r7, #7]
 4483 000a 0B46     		mov	r3, r1
 4484 000c BB71     		strb	r3, [r7, #6]
 4485 000e 1346     		mov	r3, r2	@ movhi
 4486 0010 BB80     		strh	r3, [r7, #4]	@ movhi
1432:/opt/XMClib/XMC_Peripheral_Library_v2.1.16/XMCLib/src/xmc_usbd.c ****   daint_data_t daintmsk;
1433:/opt/XMClib/XMC_Peripheral_Library_v2.1.16/XMCLib/src/xmc_usbd.c ****   XMC_USBD_EP_t *ep;
1434:/opt/XMClib/XMC_Peripheral_Library_v2.1.16/XMCLib/src/xmc_usbd.c ****   daintmsk.d32 = xmc_device.device_register->daintmsk;  
 4487              		.loc 1 1434 0
 4488 0012 B04B     		ldr	r3, .L279
 4489 0014 D3F8A431 		ldr	r3, [r3, #420]
 4490 0018 DB69     		ldr	r3, [r3, #28]
 4491 001a 3B61     		str	r3, [r7, #16]
1435:/opt/XMClib/XMC_Peripheral_Library_v2.1.16/XMCLib/src/xmc_usbd.c ****   ep =&xmc_device.ep[ep_addr & (uint32_t)XMC_USBD_ENDPOINT_NUMBER_MASK];
 4492              		.loc 1 1435 0
 4493 001c FB79     		ldrb	r3, [r7, #7]	@ zero_extendqisi2
 4494 001e 03F00F03 		and	r3, r3, #15
 4495 0022 3422     		movs	r2, #52
 4496 0024 02FB03F3 		mul	r3, r2, r3
 4497 0028 AA4A     		ldr	r2, .L279
 4498 002a 1344     		add	r3, r3, r2
 4499 002c 7B61     		str	r3, [r7, #20]
1436:/opt/XMClib/XMC_Peripheral_Library_v2.1.16/XMCLib/src/xmc_usbd.c ****   memset((void*)ep,0x0U,sizeof(XMC_USBD_EP_t)); /* clear endpoint structure */
 4500              		.loc 1 1436 0
 4501 002e 3422     		movs	r2, #52
 4502 0030 0021     		movs	r1, #0
 4503 0032 7869     		ldr	r0, [r7, #20]
 4504 0034 FFF7FEFF 		bl	memset
1437:/opt/XMClib/XMC_Peripheral_Library_v2.1.16/XMCLib/src/xmc_usbd.c ****   /* do ep configuration */
1438:/opt/XMClib/XMC_Peripheral_Library_v2.1.16/XMCLib/src/xmc_usbd.c ****   ep->address_u.address = ep_addr;
 4505              		.loc 1 1438 0
 4506 0038 7B69     		ldr	r3, [r7, #20]
 4507 003a FA79     		ldrb	r2, [r7, #7]
 4508 003c 1A70     		strb	r2, [r3]
1439:/opt/XMClib/XMC_Peripheral_Library_v2.1.16/XMCLib/src/xmc_usbd.c ****   ep->isConfigured = 1U;
 4509              		.loc 1 1439 0
 4510 003e 7A69     		ldr	r2, [r7, #20]
 4511 0040 1379     		ldrb	r3, [r2, #4]
 4512 0042 43F00403 		orr	r3, r3, #4
 4513 0046 1371     		strb	r3, [r2, #4]
1440:/opt/XMClib/XMC_Peripheral_Library_v2.1.16/XMCLib/src/xmc_usbd.c ****   ep->maxPacketSize = (uint8_t)ep_max_packet_size;
 4514              		.loc 1 1440 0
 4515 0048 BB88     		ldrh	r3, [r7, #4]	@ movhi
 4516 004a 03F07F03 		and	r3, r3, #127
 4517 004e D9B2     		uxtb	r1, r3
 4518 0050 7A69     		ldr	r2, [r7, #20]
 4519 0052 5368     		ldr	r3, [r2, #4]
 4520 0054 61F3D123 		bfi	r3, r1, #11, #7
 4521 0058 5360     		str	r3, [r2, #4]
1441:/opt/XMClib/XMC_Peripheral_Library_v2.1.16/XMCLib/src/xmc_usbd.c ****   if (ep->address_u.address != 0U)
 4522              		.loc 1 1441 0
 4523 005a 7B69     		ldr	r3, [r7, #20]
 4524 005c 1B78     		ldrb	r3, [r3]	@ zero_extendqisi2
 4525 005e 002B     		cmp	r3, #0
 4526 0060 07D0     		beq	.L254
1442:/opt/XMClib/XMC_Peripheral_Library_v2.1.16/XMCLib/src/xmc_usbd.c ****   {
1443:/opt/XMClib/XMC_Peripheral_Library_v2.1.16/XMCLib/src/xmc_usbd.c ****     ep->maxTransferSize = (uint32_t)XMC_USBD_MAX_TRANSFER_SIZE;
 4527              		.loc 1 1443 0
 4528 0062 7A69     		ldr	r2, [r7, #20]
 4529 0064 9368     		ldr	r3, [r2, #8]
 4530 0066 4FF6C071 		movw	r1, #65472
 4531 006a 61F31203 		bfi	r3, r1, #0, #19
 4532 006e 9360     		str	r3, [r2, #8]
 4533 0070 05E0     		b	.L255
 4534              	.L254:
1444:/opt/XMClib/XMC_Peripheral_Library_v2.1.16/XMCLib/src/xmc_usbd.c ****   }
1445:/opt/XMClib/XMC_Peripheral_Library_v2.1.16/XMCLib/src/xmc_usbd.c ****   else
1446:/opt/XMClib/XMC_Peripheral_Library_v2.1.16/XMCLib/src/xmc_usbd.c ****   {
1447:/opt/XMClib/XMC_Peripheral_Library_v2.1.16/XMCLib/src/xmc_usbd.c ****     ep->maxTransferSize = (uint32_t)XMC_USBD_MAX_TRANSFER_SIZE_EP0;
 4535              		.loc 1 1447 0
 4536 0072 7A69     		ldr	r2, [r7, #20]
 4537 0074 9368     		ldr	r3, [r2, #8]
 4538 0076 4021     		movs	r1, #64
 4539 0078 61F31203 		bfi	r3, r1, #0, #19
 4540 007c 9360     		str	r3, [r2, #8]
 4541              	.L255:
1448:/opt/XMClib/XMC_Peripheral_Library_v2.1.16/XMCLib/src/xmc_usbd.c ****   }
1449:/opt/XMClib/XMC_Peripheral_Library_v2.1.16/XMCLib/src/xmc_usbd.c ****   /* transfer buffer */
1450:/opt/XMClib/XMC_Peripheral_Library_v2.1.16/XMCLib/src/xmc_usbd.c ****   ep->inBuffer = XMC_USBD_EP_IN_BUFFER[ep->address_u.address_st.number];
 4542              		.loc 1 1450 0
 4543 007e 7B69     		ldr	r3, [r7, #20]
 4544 0080 1B78     		ldrb	r3, [r3]
 4545 0082 C3F30303 		ubfx	r3, r3, #0, #4
 4546 0086 DBB2     		uxtb	r3, r3
 4547 0088 1B02     		lsls	r3, r3, #8
 4548 008a 934A     		ldr	r2, .L279+4
 4549 008c 1A44     		add	r2, r2, r3
 4550 008e 7B69     		ldr	r3, [r7, #20]
 4551 0090 DA61     		str	r2, [r3, #28]
1451:/opt/XMClib/XMC_Peripheral_Library_v2.1.16/XMCLib/src/xmc_usbd.c ****   ep->outBuffer = XMC_USBD_EP_OUT_BUFFER[ep->address_u.address_st.number];
 4552              		.loc 1 1451 0
 4553 0092 7B69     		ldr	r3, [r7, #20]
 4554 0094 1B78     		ldrb	r3, [r3]
 4555 0096 C3F30303 		ubfx	r3, r3, #0, #4
 4556 009a DBB2     		uxtb	r3, r3
 4557 009c 1B02     		lsls	r3, r3, #8
 4558 009e 8F4A     		ldr	r2, .L279+8
 4559 00a0 1A44     		add	r2, r2, r3
 4560 00a2 7B69     		ldr	r3, [r7, #20]
 4561 00a4 DA60     		str	r2, [r3, #12]
1452:/opt/XMClib/XMC_Peripheral_Library_v2.1.16/XMCLib/src/xmc_usbd.c ****   /* buffer size*/
1453:/opt/XMClib/XMC_Peripheral_Library_v2.1.16/XMCLib/src/xmc_usbd.c ****   ep->inBufferSize = XMC_USBD_EP_IN_BUFFERSIZE[ep->address_u.address_st.number];
 4562              		.loc 1 1453 0
 4563 00a6 7B69     		ldr	r3, [r7, #20]
 4564 00a8 1B78     		ldrb	r3, [r3]
 4565 00aa C3F30303 		ubfx	r3, r3, #0, #4
 4566 00ae DBB2     		uxtb	r3, r3
 4567 00b0 1A46     		mov	r2, r3
 4568 00b2 8B4B     		ldr	r3, .L279+12
 4569 00b4 53F82220 		ldr	r2, [r3, r2, lsl #2]
 4570 00b8 7B69     		ldr	r3, [r7, #20]
 4571 00ba 1A62     		str	r2, [r3, #32]
1454:/opt/XMClib/XMC_Peripheral_Library_v2.1.16/XMCLib/src/xmc_usbd.c ****   ep->outBufferSize = XMC_USBD_EP_OUT_BUFFERSIZE[ep->address_u.address_st.number];
 4572              		.loc 1 1454 0
 4573 00bc 7B69     		ldr	r3, [r7, #20]
 4574 00be 1B78     		ldrb	r3, [r3]
 4575 00c0 C3F30303 		ubfx	r3, r3, #0, #4
 4576 00c4 DBB2     		uxtb	r3, r3
 4577 00c6 1A46     		mov	r2, r3
 4578 00c8 864B     		ldr	r3, .L279+16
 4579 00ca 53F82220 		ldr	r2, [r3, r2, lsl #2]
 4580 00ce 7B69     		ldr	r3, [r7, #20]
 4581 00d0 5A61     		str	r2, [r3, #20]
1455:/opt/XMClib/XMC_Peripheral_Library_v2.1.16/XMCLib/src/xmc_usbd.c ****   /* is in */
1456:/opt/XMClib/XMC_Peripheral_Library_v2.1.16/XMCLib/src/xmc_usbd.c ****   if ((ep->address_u.address_st.direction == 1U) || (ep_type == XMC_USBD_ENDPOINT_TYPE_CONTROL))
 4582              		.loc 1 1456 0
 4583 00d2 7B69     		ldr	r3, [r7, #20]
 4584 00d4 1B78     		ldrb	r3, [r3]	@ zero_extendqisi2
 4585 00d6 23F07F03 		bic	r3, r3, #127
 4586 00da DBB2     		uxtb	r3, r3
 4587 00dc 002B     		cmp	r3, #0
 4588 00de 02D1     		bne	.L256
 4589              		.loc 1 1456 0 is_stmt 0 discriminator 1
 4590 00e0 BB79     		ldrb	r3, [r7, #6]	@ zero_extendqisi2
 4591 00e2 002B     		cmp	r3, #0
 4592 00e4 79D1     		bne	.L257
 4593              	.L256:
 4594              	.LBB6:
1457:/opt/XMClib/XMC_Peripheral_Library_v2.1.16/XMCLib/src/xmc_usbd.c ****   {
1458:/opt/XMClib/XMC_Peripheral_Library_v2.1.16/XMCLib/src/xmc_usbd.c ****     depctl_data_t data;
1459:/opt/XMClib/XMC_Peripheral_Library_v2.1.16/XMCLib/src/xmc_usbd.c ****     data.d32 = xmc_device.endpoint_in_register[ep->address_u.address_st.number]->diepctl;
 4595              		.loc 1 1459 0 is_stmt 1
 4596 00e6 7B69     		ldr	r3, [r7, #20]
 4597 00e8 1B78     		ldrb	r3, [r3]
 4598 00ea C3F30303 		ubfx	r3, r3, #0, #4
 4599 00ee DBB2     		uxtb	r3, r3
 4600 00f0 784A     		ldr	r2, .L279
 4601 00f2 6A33     		adds	r3, r3, #106
 4602 00f4 52F82330 		ldr	r3, [r2, r3, lsl #2]
 4603 00f8 1B68     		ldr	r3, [r3]
 4604 00fa FB60     		str	r3, [r7, #12]
1460:/opt/XMClib/XMC_Peripheral_Library_v2.1.16/XMCLib/src/xmc_usbd.c **** 		/*enable endpoint */
1461:/opt/XMClib/XMC_Peripheral_Library_v2.1.16/XMCLib/src/xmc_usbd.c **** 		data.b.usbactep = 1U;
 4605              		.loc 1 1461 0
 4606 00fc 7B7B     		ldrb	r3, [r7, #13]
 4607 00fe 43F08003 		orr	r3, r3, #128
 4608 0102 7B73     		strb	r3, [r7, #13]
1462:/opt/XMClib/XMC_Peripheral_Library_v2.1.16/XMCLib/src/xmc_usbd.c **** 		/* set ep type */
1463:/opt/XMClib/XMC_Peripheral_Library_v2.1.16/XMCLib/src/xmc_usbd.c **** 		data.b.eptype = (uint8_t)ep_type;
 4609              		.loc 1 1463 0
 4610 0104 BB79     		ldrb	r3, [r7, #6]
 4611 0106 03F00303 		and	r3, r3, #3
 4612 010a DAB2     		uxtb	r2, r3
 4613 010c BB7B     		ldrb	r3, [r7, #14]
 4614 010e 62F38303 		bfi	r3, r2, #2, #2
 4615 0112 BB73     		strb	r3, [r7, #14]
1464:/opt/XMClib/XMC_Peripheral_Library_v2.1.16/XMCLib/src/xmc_usbd.c **** 		/* set mps */
1465:/opt/XMClib/XMC_Peripheral_Library_v2.1.16/XMCLib/src/xmc_usbd.c ****     if (ep_type == XMC_USBD_ENDPOINT_TYPE_CONTROL)
 4616              		.loc 1 1465 0
 4617 0114 BB79     		ldrb	r3, [r7, #6]	@ zero_extendqisi2
 4618 0116 002B     		cmp	r3, #0
 4619 0118 23D1     		bne	.L258
1466:/opt/XMClib/XMC_Peripheral_Library_v2.1.16/XMCLib/src/xmc_usbd.c ****     {
1467:/opt/XMClib/XMC_Peripheral_Library_v2.1.16/XMCLib/src/xmc_usbd.c **** 			switch(ep_max_packet_size)
 4620              		.loc 1 1467 0
 4621 011a BB88     		ldrh	r3, [r7, #4]
 4622 011c 102B     		cmp	r3, #16
 4623 011e 14D0     		beq	.L260
 4624 0120 102B     		cmp	r3, #16
 4625 0122 02DC     		bgt	.L261
 4626 0124 082B     		cmp	r3, #8
 4627 0126 16D0     		beq	.L262
1468:/opt/XMClib/XMC_Peripheral_Library_v2.1.16/XMCLib/src/xmc_usbd.c **** 			{
1469:/opt/XMClib/XMC_Peripheral_Library_v2.1.16/XMCLib/src/xmc_usbd.c **** 				case (64U):
1470:/opt/XMClib/XMC_Peripheral_Library_v2.1.16/XMCLib/src/xmc_usbd.c **** 				data.b.mps = 0x0U;
1471:/opt/XMClib/XMC_Peripheral_Library_v2.1.16/XMCLib/src/xmc_usbd.c **** 				break;
1472:/opt/XMClib/XMC_Peripheral_Library_v2.1.16/XMCLib/src/xmc_usbd.c **** 				case (32U):
1473:/opt/XMClib/XMC_Peripheral_Library_v2.1.16/XMCLib/src/xmc_usbd.c **** 				data.b.mps = 0x1U;
1474:/opt/XMClib/XMC_Peripheral_Library_v2.1.16/XMCLib/src/xmc_usbd.c **** 				break;
1475:/opt/XMClib/XMC_Peripheral_Library_v2.1.16/XMCLib/src/xmc_usbd.c **** 				case (16U):
1476:/opt/XMClib/XMC_Peripheral_Library_v2.1.16/XMCLib/src/xmc_usbd.c **** 				data.b.mps = 0x2U;
1477:/opt/XMClib/XMC_Peripheral_Library_v2.1.16/XMCLib/src/xmc_usbd.c **** 				break;
1478:/opt/XMClib/XMC_Peripheral_Library_v2.1.16/XMCLib/src/xmc_usbd.c **** 				case (8U):
1479:/opt/XMClib/XMC_Peripheral_Library_v2.1.16/XMCLib/src/xmc_usbd.c **** 				data.b.mps = 0x3U;
1480:/opt/XMClib/XMC_Peripheral_Library_v2.1.16/XMCLib/src/xmc_usbd.c **** 				break;
1481:/opt/XMClib/XMC_Peripheral_Library_v2.1.16/XMCLib/src/xmc_usbd.c **** 				default:
1482:/opt/XMClib/XMC_Peripheral_Library_v2.1.16/XMCLib/src/xmc_usbd.c **** 				break;
 4628              		.loc 1 1482 0
 4629 0128 23E0     		b	.L266
 4630              	.L261:
1467:/opt/XMClib/XMC_Peripheral_Library_v2.1.16/XMCLib/src/xmc_usbd.c **** 			{
 4631              		.loc 1 1467 0
 4632 012a 202B     		cmp	r3, #32
 4633 012c 07D0     		beq	.L263
 4634 012e 402B     		cmp	r3, #64
 4635 0130 00D0     		beq	.L264
 4636              		.loc 1 1482 0
 4637 0132 1EE0     		b	.L266
 4638              	.L264:
1470:/opt/XMClib/XMC_Peripheral_Library_v2.1.16/XMCLib/src/xmc_usbd.c **** 				break;
 4639              		.loc 1 1470 0
 4640 0134 BB89     		ldrh	r3, [r7, #12]	@ movhi
 4641 0136 6FF30A03 		bfc	r3, #0, #11
 4642 013a BB81     		strh	r3, [r7, #12]	@ movhi
1471:/opt/XMClib/XMC_Peripheral_Library_v2.1.16/XMCLib/src/xmc_usbd.c **** 				case (32U):
 4643              		.loc 1 1471 0
 4644 013c 19E0     		b	.L266
 4645              	.L263:
1473:/opt/XMClib/XMC_Peripheral_Library_v2.1.16/XMCLib/src/xmc_usbd.c **** 				break;
 4646              		.loc 1 1473 0
 4647 013e BB89     		ldrh	r3, [r7, #12]	@ movhi
 4648 0140 0122     		movs	r2, #1
 4649 0142 62F30A03 		bfi	r3, r2, #0, #11
 4650 0146 BB81     		strh	r3, [r7, #12]	@ movhi
1474:/opt/XMClib/XMC_Peripheral_Library_v2.1.16/XMCLib/src/xmc_usbd.c **** 				case (16U):
 4651              		.loc 1 1474 0
 4652 0148 13E0     		b	.L266
 4653              	.L260:
1476:/opt/XMClib/XMC_Peripheral_Library_v2.1.16/XMCLib/src/xmc_usbd.c **** 				break;
 4654              		.loc 1 1476 0
 4655 014a BB89     		ldrh	r3, [r7, #12]	@ movhi
 4656 014c 0222     		movs	r2, #2
 4657 014e 62F30A03 		bfi	r3, r2, #0, #11
 4658 0152 BB81     		strh	r3, [r7, #12]	@ movhi
1477:/opt/XMClib/XMC_Peripheral_Library_v2.1.16/XMCLib/src/xmc_usbd.c **** 				case (8U):
 4659              		.loc 1 1477 0
 4660 0154 0DE0     		b	.L266
 4661              	.L262:
1479:/opt/XMClib/XMC_Peripheral_Library_v2.1.16/XMCLib/src/xmc_usbd.c **** 				break;
 4662              		.loc 1 1479 0
 4663 0156 BB89     		ldrh	r3, [r7, #12]	@ movhi
 4664 0158 0322     		movs	r2, #3
 4665 015a 62F30A03 		bfi	r3, r2, #0, #11
 4666 015e BB81     		strh	r3, [r7, #12]	@ movhi
1480:/opt/XMClib/XMC_Peripheral_Library_v2.1.16/XMCLib/src/xmc_usbd.c **** 				default:
 4667              		.loc 1 1480 0
 4668 0160 07E0     		b	.L266
 4669              	.L258:
1483:/opt/XMClib/XMC_Peripheral_Library_v2.1.16/XMCLib/src/xmc_usbd.c **** 			}
1484:/opt/XMClib/XMC_Peripheral_Library_v2.1.16/XMCLib/src/xmc_usbd.c **** 		}
1485:/opt/XMClib/XMC_Peripheral_Library_v2.1.16/XMCLib/src/xmc_usbd.c **** 		else
1486:/opt/XMClib/XMC_Peripheral_Library_v2.1.16/XMCLib/src/xmc_usbd.c **** 		{
1487:/opt/XMClib/XMC_Peripheral_Library_v2.1.16/XMCLib/src/xmc_usbd.c **** 			data.b.mps = ep_max_packet_size;
 4670              		.loc 1 1487 0
 4671 0162 BB88     		ldrh	r3, [r7, #4]	@ movhi
 4672 0164 C3F30A03 		ubfx	r3, r3, #0, #11
 4673 0168 9AB2     		uxth	r2, r3
 4674 016a BB89     		ldrh	r3, [r7, #12]	@ movhi
 4675 016c 62F30A03 		bfi	r3, r2, #0, #11
 4676 0170 BB81     		strh	r3, [r7, #12]	@ movhi
 4677              	.L266:
1488:/opt/XMClib/XMC_Peripheral_Library_v2.1.16/XMCLib/src/xmc_usbd.c **** 		}
1489:/opt/XMClib/XMC_Peripheral_Library_v2.1.16/XMCLib/src/xmc_usbd.c **** 		/* set first data0 pid */
1490:/opt/XMClib/XMC_Peripheral_Library_v2.1.16/XMCLib/src/xmc_usbd.c **** 		data.b.setd0pid = 1U;
 4678              		.loc 1 1490 0
 4679 0172 FB7B     		ldrb	r3, [r7, #15]
 4680 0174 43F01003 		orr	r3, r3, #16
 4681 0178 FB73     		strb	r3, [r7, #15]
1491:/opt/XMClib/XMC_Peripheral_Library_v2.1.16/XMCLib/src/xmc_usbd.c **** 		/* clear stall */
1492:/opt/XMClib/XMC_Peripheral_Library_v2.1.16/XMCLib/src/xmc_usbd.c **** 		data.b.stall = 0U;
 4682              		.loc 1 1492 0
 4683 017a BB7B     		ldrb	r3, [r7, #14]
 4684 017c 6FF34513 		bfc	r3, #5, #1
 4685 0180 BB73     		strb	r3, [r7, #14]
1493:/opt/XMClib/XMC_Peripheral_Library_v2.1.16/XMCLib/src/xmc_usbd.c **** 		/* set tx fifo */
1494:/opt/XMClib/XMC_Peripheral_Library_v2.1.16/XMCLib/src/xmc_usbd.c **** 		ep->txFifoNum = XMC_USBD_lAssignTXFifo(); /* get tx fifo */
 4686              		.loc 1 1494 0
 4687 0182 FFF7FEFF 		bl	XMC_USBD_lAssignTXFifo
 4688 0186 0346     		mov	r3, r0
 4689 0188 03F00F03 		and	r3, r3, #15
 4690 018c D9B2     		uxtb	r1, r3
 4691 018e 7A69     		ldr	r2, [r7, #20]
 4692 0190 9388     		ldrh	r3, [r2, #4]	@ movhi
 4693 0192 61F38913 		bfi	r3, r1, #6, #4
 4694 0196 9380     		strh	r3, [r2, #4]	@ movhi
1495:/opt/XMClib/XMC_Peripheral_Library_v2.1.16/XMCLib/src/xmc_usbd.c **** 		data.b.txfnum = ep->txFifoNum;
 4695              		.loc 1 1495 0
 4696 0198 7B69     		ldr	r3, [r7, #20]
 4697 019a 9B88     		ldrh	r3, [r3, #4]	@ movhi
 4698 019c C3F38313 		ubfx	r3, r3, #6, #4
 4699 01a0 DAB2     		uxtb	r2, r3
 4700 01a2 FB89     		ldrh	r3, [r7, #14]	@ movhi
 4701 01a4 62F38913 		bfi	r3, r2, #6, #4
 4702 01a8 FB81     		strh	r3, [r7, #14]	@ movhi
1496:/opt/XMClib/XMC_Peripheral_Library_v2.1.16/XMCLib/src/xmc_usbd.c **** 		xmc_device.endpoint_in_register[ep->address_u.address_st.number]->diepctl = data.d32; /* configur
 4703              		.loc 1 1496 0
 4704 01aa 7B69     		ldr	r3, [r7, #20]
 4705 01ac 1B78     		ldrb	r3, [r3]
 4706 01ae C3F30303 		ubfx	r3, r3, #0, #4
 4707 01b2 DBB2     		uxtb	r3, r3
 4708 01b4 474A     		ldr	r2, .L279
 4709 01b6 6A33     		adds	r3, r3, #106
 4710 01b8 52F82330 		ldr	r3, [r2, r3, lsl #2]
 4711 01bc FA68     		ldr	r2, [r7, #12]
 4712 01be 1A60     		str	r2, [r3]
1497:/opt/XMClib/XMC_Peripheral_Library_v2.1.16/XMCLib/src/xmc_usbd.c **** 		daintmsk.ep.in |= (uint16_t)((uint16_t)1U << (uint8_t)ep->address_u.address_st.number); /* enable
 4713              		.loc 1 1497 0
 4714 01c0 3A8A     		ldrh	r2, [r7, #16]
 4715 01c2 7B69     		ldr	r3, [r7, #20]
 4716 01c4 1B78     		ldrb	r3, [r3]
 4717 01c6 C3F30303 		ubfx	r3, r3, #0, #4
 4718 01ca DBB2     		uxtb	r3, r3
 4719 01cc 1946     		mov	r1, r3
 4720 01ce 0123     		movs	r3, #1
 4721 01d0 8B40     		lsls	r3, r3, r1
 4722 01d2 9BB2     		uxth	r3, r3
 4723 01d4 1343     		orrs	r3, r3, r2
 4724 01d6 9BB2     		uxth	r3, r3
 4725 01d8 3B82     		strh	r3, [r7, #16]	@ movhi
 4726              	.L257:
 4727              	.LBE6:
1498:/opt/XMClib/XMC_Peripheral_Library_v2.1.16/XMCLib/src/xmc_usbd.c ****   }
1499:/opt/XMClib/XMC_Peripheral_Library_v2.1.16/XMCLib/src/xmc_usbd.c ****   if ((ep->address_u.address_st.direction == 0U) || (ep_type == XMC_USBD_ENDPOINT_TYPE_CONTROL))
 4728              		.loc 1 1499 0
 4729 01da 7B69     		ldr	r3, [r7, #20]
 4730 01dc 1B78     		ldrb	r3, [r3]	@ zero_extendqisi2
 4731 01de 23F07F03 		bic	r3, r3, #127
 4732 01e2 DBB2     		uxtb	r3, r3
 4733 01e4 002B     		cmp	r3, #0
 4734 01e6 02D0     		beq	.L267
 4735              		.loc 1 1499 0 is_stmt 0 discriminator 1
 4736 01e8 BB79     		ldrb	r3, [r7, #6]	@ zero_extendqisi2
 4737 01ea 002B     		cmp	r3, #0
 4738 01ec 67D1     		bne	.L268
 4739              	.L267:
 4740              	.LBB7:
1500:/opt/XMClib/XMC_Peripheral_Library_v2.1.16/XMCLib/src/xmc_usbd.c ****   {
1501:/opt/XMClib/XMC_Peripheral_Library_v2.1.16/XMCLib/src/xmc_usbd.c ****     /* is out */
1502:/opt/XMClib/XMC_Peripheral_Library_v2.1.16/XMCLib/src/xmc_usbd.c **** 		depctl_data_t data;
1503:/opt/XMClib/XMC_Peripheral_Library_v2.1.16/XMCLib/src/xmc_usbd.c **** 		data.d32 = xmc_device.endpoint_out_register[ep->address_u.address_st.number]->doepctl;
 4741              		.loc 1 1503 0 is_stmt 1
 4742 01ee 7B69     		ldr	r3, [r7, #20]
 4743 01f0 1B78     		ldrb	r3, [r3]
 4744 01f2 C3F30303 		ubfx	r3, r3, #0, #4
 4745 01f6 DBB2     		uxtb	r3, r3
 4746 01f8 364A     		ldr	r2, .L279
 4747 01fa 7033     		adds	r3, r3, #112
 4748 01fc 9B00     		lsls	r3, r3, #2
 4749 01fe 1344     		add	r3, r3, r2
 4750 0200 5B68     		ldr	r3, [r3, #4]
 4751 0202 1B68     		ldr	r3, [r3]
 4752 0204 BB60     		str	r3, [r7, #8]
1504:/opt/XMClib/XMC_Peripheral_Library_v2.1.16/XMCLib/src/xmc_usbd.c **** 		/*enable endpoint */
1505:/opt/XMClib/XMC_Peripheral_Library_v2.1.16/XMCLib/src/xmc_usbd.c **** 		data.b.usbactep = 1U;
 4753              		.loc 1 1505 0
 4754 0206 7B7A     		ldrb	r3, [r7, #9]
 4755 0208 43F08003 		orr	r3, r3, #128
 4756 020c 7B72     		strb	r3, [r7, #9]
1506:/opt/XMClib/XMC_Peripheral_Library_v2.1.16/XMCLib/src/xmc_usbd.c **** 		/* set ep type */
1507:/opt/XMClib/XMC_Peripheral_Library_v2.1.16/XMCLib/src/xmc_usbd.c **** 		data.b.eptype = (uint8_t)ep_type;
 4757              		.loc 1 1507 0
 4758 020e BB79     		ldrb	r3, [r7, #6]
 4759 0210 03F00303 		and	r3, r3, #3
 4760 0214 DAB2     		uxtb	r2, r3
 4761 0216 BB7A     		ldrb	r3, [r7, #10]
 4762 0218 62F38303 		bfi	r3, r2, #2, #2
 4763 021c BB72     		strb	r3, [r7, #10]
1508:/opt/XMClib/XMC_Peripheral_Library_v2.1.16/XMCLib/src/xmc_usbd.c ****     /* set mps */
1509:/opt/XMClib/XMC_Peripheral_Library_v2.1.16/XMCLib/src/xmc_usbd.c ****     if (ep_type == XMC_USBD_ENDPOINT_TYPE_CONTROL)
 4764              		.loc 1 1509 0
 4765 021e BB79     		ldrb	r3, [r7, #6]	@ zero_extendqisi2
 4766 0220 002B     		cmp	r3, #0
 4767 0222 23D1     		bne	.L269
1510:/opt/XMClib/XMC_Peripheral_Library_v2.1.16/XMCLib/src/xmc_usbd.c **** 		{
1511:/opt/XMClib/XMC_Peripheral_Library_v2.1.16/XMCLib/src/xmc_usbd.c **** 			switch(ep_max_packet_size)
 4768              		.loc 1 1511 0
 4769 0224 BB88     		ldrh	r3, [r7, #4]
 4770 0226 102B     		cmp	r3, #16
 4771 0228 14D0     		beq	.L271
 4772 022a 102B     		cmp	r3, #16
 4773 022c 02DC     		bgt	.L272
 4774 022e 082B     		cmp	r3, #8
 4775 0230 16D0     		beq	.L273
1512:/opt/XMClib/XMC_Peripheral_Library_v2.1.16/XMCLib/src/xmc_usbd.c **** 			{
1513:/opt/XMClib/XMC_Peripheral_Library_v2.1.16/XMCLib/src/xmc_usbd.c **** 				case (64U):
1514:/opt/XMClib/XMC_Peripheral_Library_v2.1.16/XMCLib/src/xmc_usbd.c **** 					data.b.mps = 0x0U;
1515:/opt/XMClib/XMC_Peripheral_Library_v2.1.16/XMCLib/src/xmc_usbd.c **** 					break;
1516:/opt/XMClib/XMC_Peripheral_Library_v2.1.16/XMCLib/src/xmc_usbd.c **** 				case (32U):
1517:/opt/XMClib/XMC_Peripheral_Library_v2.1.16/XMCLib/src/xmc_usbd.c **** 					data.b.mps = 0x1U;
1518:/opt/XMClib/XMC_Peripheral_Library_v2.1.16/XMCLib/src/xmc_usbd.c **** 					break;
1519:/opt/XMClib/XMC_Peripheral_Library_v2.1.16/XMCLib/src/xmc_usbd.c **** 				case (16U):
1520:/opt/XMClib/XMC_Peripheral_Library_v2.1.16/XMCLib/src/xmc_usbd.c **** 					data.b.mps = 0x2U;
1521:/opt/XMClib/XMC_Peripheral_Library_v2.1.16/XMCLib/src/xmc_usbd.c **** 					break;
1522:/opt/XMClib/XMC_Peripheral_Library_v2.1.16/XMCLib/src/xmc_usbd.c **** 				case (8U):
1523:/opt/XMClib/XMC_Peripheral_Library_v2.1.16/XMCLib/src/xmc_usbd.c **** 					data.b.mps = 0x3U;
1524:/opt/XMClib/XMC_Peripheral_Library_v2.1.16/XMCLib/src/xmc_usbd.c **** 					break;
1525:/opt/XMClib/XMC_Peripheral_Library_v2.1.16/XMCLib/src/xmc_usbd.c **** 				default:
1526:/opt/XMClib/XMC_Peripheral_Library_v2.1.16/XMCLib/src/xmc_usbd.c **** 					break;
 4776              		.loc 1 1526 0
 4777 0232 23E0     		b	.L277
 4778              	.L272:
1511:/opt/XMClib/XMC_Peripheral_Library_v2.1.16/XMCLib/src/xmc_usbd.c **** 			{
 4779              		.loc 1 1511 0
 4780 0234 202B     		cmp	r3, #32
 4781 0236 07D0     		beq	.L274
 4782 0238 402B     		cmp	r3, #64
 4783 023a 00D0     		beq	.L275
 4784              		.loc 1 1526 0
 4785 023c 1EE0     		b	.L277
 4786              	.L275:
1514:/opt/XMClib/XMC_Peripheral_Library_v2.1.16/XMCLib/src/xmc_usbd.c **** 					break;
 4787              		.loc 1 1514 0
 4788 023e 3B89     		ldrh	r3, [r7, #8]	@ movhi
 4789 0240 6FF30A03 		bfc	r3, #0, #11
 4790 0244 3B81     		strh	r3, [r7, #8]	@ movhi
1515:/opt/XMClib/XMC_Peripheral_Library_v2.1.16/XMCLib/src/xmc_usbd.c **** 				case (32U):
 4791              		.loc 1 1515 0
 4792 0246 19E0     		b	.L277
 4793              	.L274:
1517:/opt/XMClib/XMC_Peripheral_Library_v2.1.16/XMCLib/src/xmc_usbd.c **** 					break;
 4794              		.loc 1 1517 0
 4795 0248 3B89     		ldrh	r3, [r7, #8]	@ movhi
 4796 024a 0122     		movs	r2, #1
 4797 024c 62F30A03 		bfi	r3, r2, #0, #11
 4798 0250 3B81     		strh	r3, [r7, #8]	@ movhi
1518:/opt/XMClib/XMC_Peripheral_Library_v2.1.16/XMCLib/src/xmc_usbd.c **** 				case (16U):
 4799              		.loc 1 1518 0
 4800 0252 13E0     		b	.L277
 4801              	.L271:
1520:/opt/XMClib/XMC_Peripheral_Library_v2.1.16/XMCLib/src/xmc_usbd.c **** 					break;
 4802              		.loc 1 1520 0
 4803 0254 3B89     		ldrh	r3, [r7, #8]	@ movhi
 4804 0256 0222     		movs	r2, #2
 4805 0258 62F30A03 		bfi	r3, r2, #0, #11
 4806 025c 3B81     		strh	r3, [r7, #8]	@ movhi
1521:/opt/XMClib/XMC_Peripheral_Library_v2.1.16/XMCLib/src/xmc_usbd.c **** 				case (8U):
 4807              		.loc 1 1521 0
 4808 025e 0DE0     		b	.L277
 4809              	.L273:
1523:/opt/XMClib/XMC_Peripheral_Library_v2.1.16/XMCLib/src/xmc_usbd.c **** 					break;
 4810              		.loc 1 1523 0
 4811 0260 3B89     		ldrh	r3, [r7, #8]	@ movhi
 4812 0262 0322     		movs	r2, #3
 4813 0264 62F30A03 		bfi	r3, r2, #0, #11
 4814 0268 3B81     		strh	r3, [r7, #8]	@ movhi
1524:/opt/XMClib/XMC_Peripheral_Library_v2.1.16/XMCLib/src/xmc_usbd.c **** 				default:
 4815              		.loc 1 1524 0
 4816 026a 07E0     		b	.L277
 4817              	.L269:
1527:/opt/XMClib/XMC_Peripheral_Library_v2.1.16/XMCLib/src/xmc_usbd.c **** 			}
1528:/opt/XMClib/XMC_Peripheral_Library_v2.1.16/XMCLib/src/xmc_usbd.c **** 		}
1529:/opt/XMClib/XMC_Peripheral_Library_v2.1.16/XMCLib/src/xmc_usbd.c **** 		else
1530:/opt/XMClib/XMC_Peripheral_Library_v2.1.16/XMCLib/src/xmc_usbd.c **** 		{
1531:/opt/XMClib/XMC_Peripheral_Library_v2.1.16/XMCLib/src/xmc_usbd.c **** 			data.b.mps = ep_max_packet_size;
 4818              		.loc 1 1531 0
 4819 026c BB88     		ldrh	r3, [r7, #4]	@ movhi
 4820 026e C3F30A03 		ubfx	r3, r3, #0, #11
 4821 0272 9AB2     		uxth	r2, r3
 4822 0274 3B89     		ldrh	r3, [r7, #8]	@ movhi
 4823 0276 62F30A03 		bfi	r3, r2, #0, #11
 4824 027a 3B81     		strh	r3, [r7, #8]	@ movhi
 4825              	.L277:
1532:/opt/XMClib/XMC_Peripheral_Library_v2.1.16/XMCLib/src/xmc_usbd.c **** 		}
1533:/opt/XMClib/XMC_Peripheral_Library_v2.1.16/XMCLib/src/xmc_usbd.c **** 		/* set first data0 pid */
1534:/opt/XMClib/XMC_Peripheral_Library_v2.1.16/XMCLib/src/xmc_usbd.c **** 		data.b.setd0pid = 1U;
 4826              		.loc 1 1534 0
 4827 027c FB7A     		ldrb	r3, [r7, #11]
 4828 027e 43F01003 		orr	r3, r3, #16
 4829 0282 FB72     		strb	r3, [r7, #11]
1535:/opt/XMClib/XMC_Peripheral_Library_v2.1.16/XMCLib/src/xmc_usbd.c **** 		/* clear stall */
1536:/opt/XMClib/XMC_Peripheral_Library_v2.1.16/XMCLib/src/xmc_usbd.c **** 		data.b.stall =(uint8_t) 0U;
 4830              		.loc 1 1536 0
 4831 0284 BB7A     		ldrb	r3, [r7, #10]
 4832 0286 6FF34513 		bfc	r3, #5, #1
 4833 028a BB72     		strb	r3, [r7, #10]
1537:/opt/XMClib/XMC_Peripheral_Library_v2.1.16/XMCLib/src/xmc_usbd.c **** 		xmc_device.endpoint_out_register[ep->address_u.address_st.number]->doepctl = data.d32; /* configu
 4834              		.loc 1 1537 0
 4835 028c 7B69     		ldr	r3, [r7, #20]
 4836 028e 1B78     		ldrb	r3, [r3]
 4837 0290 C3F30303 		ubfx	r3, r3, #0, #4
 4838 0294 DBB2     		uxtb	r3, r3
 4839 0296 0F4A     		ldr	r2, .L279
 4840 0298 7033     		adds	r3, r3, #112
 4841 029a 9B00     		lsls	r3, r3, #2
 4842 029c 1344     		add	r3, r3, r2
 4843 029e 5B68     		ldr	r3, [r3, #4]
 4844 02a0 BA68     		ldr	r2, [r7, #8]
 4845 02a2 1A60     		str	r2, [r3]
1538:/opt/XMClib/XMC_Peripheral_Library_v2.1.16/XMCLib/src/xmc_usbd.c **** 		daintmsk.ep.out |=(uint16_t) ((uint16_t)1U << (uint8_t)ep->address_u.address_st.number); /* enabl
 4846              		.loc 1 1538 0
 4847 02a4 7A8A     		ldrh	r2, [r7, #18]
 4848 02a6 7B69     		ldr	r3, [r7, #20]
 4849 02a8 1B78     		ldrb	r3, [r3]
 4850 02aa C3F30303 		ubfx	r3, r3, #0, #4
 4851 02ae DBB2     		uxtb	r3, r3
 4852 02b0 1946     		mov	r1, r3
 4853 02b2 0123     		movs	r3, #1
 4854 02b4 8B40     		lsls	r3, r3, r1
 4855 02b6 9BB2     		uxth	r3, r3
 4856 02b8 1343     		orrs	r3, r3, r2
 4857 02ba 9BB2     		uxth	r3, r3
 4858 02bc 7B82     		strh	r3, [r7, #18]	@ movhi
 4859              	.L268:
 4860              	.LBE7:
1539:/opt/XMClib/XMC_Peripheral_Library_v2.1.16/XMCLib/src/xmc_usbd.c ****   }
1540:/opt/XMClib/XMC_Peripheral_Library_v2.1.16/XMCLib/src/xmc_usbd.c ****   xmc_device.device_register->daintmsk = daintmsk.d32;
 4861              		.loc 1 1540 0
 4862 02be 054B     		ldr	r3, .L279
 4863 02c0 D3F8A431 		ldr	r3, [r3, #420]
 4864 02c4 3A69     		ldr	r2, [r7, #16]
 4865 02c6 DA61     		str	r2, [r3, #28]
1541:/opt/XMClib/XMC_Peripheral_Library_v2.1.16/XMCLib/src/xmc_usbd.c ****   return XMC_USBD_STATUS_OK;
 4866              		.loc 1 1541 0
 4867 02c8 0023     		movs	r3, #0
1542:/opt/XMClib/XMC_Peripheral_Library_v2.1.16/XMCLib/src/xmc_usbd.c **** }
 4868              		.loc 1 1542 0
 4869 02ca 1846     		mov	r0, r3
 4870 02cc 1837     		adds	r7, r7, #24
 4871              	.LCFI198:
 4872              		.cfi_def_cfa_offset 8
 4873 02ce BD46     		mov	sp, r7
 4874              	.LCFI199:
 4875              		.cfi_def_cfa_register 13
 4876              		@ sp needed
 4877 02d0 80BD     		pop	{r7, pc}
 4878              	.L280:
 4879 02d2 00BF     		.align	2
 4880              	.L279:
 4881 02d4 00000000 		.word	xmc_device
 4882 02d8 00070000 		.word	XMC_USBD_EP_IN_BUFFER
 4883 02dc 00000000 		.word	XMC_USBD_EP_OUT_BUFFER
 4884 02e0 00000000 		.word	XMC_USBD_EP_IN_BUFFERSIZE
 4885 02e4 00000000 		.word	XMC_USBD_EP_OUT_BUFFERSIZE
 4886              		.cfi_endproc
 4887              	.LFE198:
 4889              		.section	.text.XMC_USBD_EndpointUnconfigure,"ax",%progbits
 4890              		.align	1
 4891              		.global	XMC_USBD_EndpointUnconfigure
 4892              		.syntax unified
 4893              		.thumb
 4894              		.thumb_func
 4895              		.fpu fpv4-sp-d16
 4897              	XMC_USBD_EndpointUnconfigure:
 4898              	.LFB199:
1543:/opt/XMClib/XMC_Peripheral_Library_v2.1.16/XMCLib/src/xmc_usbd.c **** 
1544:/opt/XMClib/XMC_Peripheral_Library_v2.1.16/XMCLib/src/xmc_usbd.c **** /**
1545:/opt/XMClib/XMC_Peripheral_Library_v2.1.16/XMCLib/src/xmc_usbd.c ****  * Unconfigure the selected endpoint.
1546:/opt/XMClib/XMC_Peripheral_Library_v2.1.16/XMCLib/src/xmc_usbd.c ****  **/
1547:/opt/XMClib/XMC_Peripheral_Library_v2.1.16/XMCLib/src/xmc_usbd.c **** XMC_USBD_STATUS_t XMC_USBD_EndpointUnconfigure(const uint8_t ep_addr) 
1548:/opt/XMClib/XMC_Peripheral_Library_v2.1.16/XMCLib/src/xmc_usbd.c **** {
 4899              		.loc 1 1548 0
 4900              		.cfi_startproc
 4901              		@ args = 0, pretend = 0, frame = 32
 4902              		@ frame_needed = 1, uses_anonymous_args = 0
 4903 0000 80B5     		push	{r7, lr}
 4904              	.LCFI200:
 4905              		.cfi_def_cfa_offset 8
 4906              		.cfi_offset 7, -8
 4907              		.cfi_offset 14, -4
 4908 0002 88B0     		sub	sp, sp, #32
 4909              	.LCFI201:
 4910              		.cfi_def_cfa_offset 40
 4911 0004 00AF     		add	r7, sp, #0
 4912              	.LCFI202:
 4913              		.cfi_def_cfa_register 7
 4914 0006 0346     		mov	r3, r0
 4915 0008 FB71     		strb	r3, [r7, #7]
1549:/opt/XMClib/XMC_Peripheral_Library_v2.1.16/XMCLib/src/xmc_usbd.c ****   XMC_USBD_EP_t *ep = &xmc_device.ep[ep_addr & (uint8_t)XMC_USBD_ENDPOINT_NUMBER_MASK];
 4916              		.loc 1 1549 0
 4917 000a FB79     		ldrb	r3, [r7, #7]	@ zero_extendqisi2
 4918 000c 03F00F03 		and	r3, r3, #15
 4919 0010 3422     		movs	r2, #52
 4920 0012 02FB03F3 		mul	r3, r2, r3
 4921 0016 544A     		ldr	r2, .L289
 4922 0018 1344     		add	r3, r3, r2
 4923 001a BB61     		str	r3, [r7, #24]
1550:/opt/XMClib/XMC_Peripheral_Library_v2.1.16/XMCLib/src/xmc_usbd.c ****   depctl_data_t data;
1551:/opt/XMClib/XMC_Peripheral_Library_v2.1.16/XMCLib/src/xmc_usbd.c **** 	daint_data_t daintmsk;
1552:/opt/XMClib/XMC_Peripheral_Library_v2.1.16/XMCLib/src/xmc_usbd.c **** 	XMC_USBD_STATUS_t result;
1553:/opt/XMClib/XMC_Peripheral_Library_v2.1.16/XMCLib/src/xmc_usbd.c **** 	uint32_t number_temp;
1554:/opt/XMClib/XMC_Peripheral_Library_v2.1.16/XMCLib/src/xmc_usbd.c ****   data.d32 = 0U;  
 4924              		.loc 1 1554 0
 4925 001c 0023     		movs	r3, #0
 4926 001e 3B61     		str	r3, [r7, #16]
1555:/opt/XMClib/XMC_Peripheral_Library_v2.1.16/XMCLib/src/xmc_usbd.c ****   daintmsk.d32 = xmc_device.device_register->daintmsk;  
 4927              		.loc 1 1555 0
 4928 0020 514B     		ldr	r3, .L289
 4929 0022 D3F8A431 		ldr	r3, [r3, #420]
 4930 0026 DB69     		ldr	r3, [r3, #28]
 4931 0028 FB60     		str	r3, [r7, #12]
1556:/opt/XMClib/XMC_Peripheral_Library_v2.1.16/XMCLib/src/xmc_usbd.c ****   number_temp = (uint32_t)((uint32_t)1U << (uint8_t)ep->address_u.address_st.number);
 4932              		.loc 1 1556 0
 4933 002a BB69     		ldr	r3, [r7, #24]
 4934 002c 1B78     		ldrb	r3, [r3]
 4935 002e C3F30303 		ubfx	r3, r3, #0, #4
 4936 0032 DBB2     		uxtb	r3, r3
 4937 0034 1A46     		mov	r2, r3
 4938 0036 0123     		movs	r3, #1
 4939 0038 9340     		lsls	r3, r3, r2
 4940 003a 7B61     		str	r3, [r7, #20]
1557:/opt/XMClib/XMC_Peripheral_Library_v2.1.16/XMCLib/src/xmc_usbd.c ****   /* if not configured return an error */
1558:/opt/XMClib/XMC_Peripheral_Library_v2.1.16/XMCLib/src/xmc_usbd.c ****   if (!ep->isConfigured)
 4941              		.loc 1 1558 0
 4942 003c BB69     		ldr	r3, [r7, #24]
 4943 003e 1B79     		ldrb	r3, [r3, #4]	@ zero_extendqisi2
 4944 0040 03F00403 		and	r3, r3, #4
 4945 0044 DBB2     		uxtb	r3, r3
 4946 0046 002B     		cmp	r3, #0
 4947 0048 02D1     		bne	.L282
1559:/opt/XMClib/XMC_Peripheral_Library_v2.1.16/XMCLib/src/xmc_usbd.c ****   {
1560:/opt/XMClib/XMC_Peripheral_Library_v2.1.16/XMCLib/src/xmc_usbd.c ****      result = XMC_USBD_STATUS_ERROR;
 4948              		.loc 1 1560 0
 4949 004a 0123     		movs	r3, #1
 4950 004c FB77     		strb	r3, [r7, #31]
 4951 004e 85E0     		b	.L283
 4952              	.L282:
1561:/opt/XMClib/XMC_Peripheral_Library_v2.1.16/XMCLib/src/xmc_usbd.c ****   }
1562:/opt/XMClib/XMC_Peripheral_Library_v2.1.16/XMCLib/src/xmc_usbd.c ****   else
1563:/opt/XMClib/XMC_Peripheral_Library_v2.1.16/XMCLib/src/xmc_usbd.c ****   {
1564:/opt/XMClib/XMC_Peripheral_Library_v2.1.16/XMCLib/src/xmc_usbd.c ****     /* disable the endpoint, deactivate it and only send naks */
1565:/opt/XMClib/XMC_Peripheral_Library_v2.1.16/XMCLib/src/xmc_usbd.c ****     data.b.usbactep = 0U;
 4953              		.loc 1 1565 0
 4954 0050 7B7C     		ldrb	r3, [r7, #17]
 4955 0052 6FF3C713 		bfc	r3, #7, #1
 4956 0056 7B74     		strb	r3, [r7, #17]
1566:/opt/XMClib/XMC_Peripheral_Library_v2.1.16/XMCLib/src/xmc_usbd.c ****     data.b.epdis =  1U;
 4957              		.loc 1 1566 0
 4958 0058 FB7C     		ldrb	r3, [r7, #19]
 4959 005a 43F04003 		orr	r3, r3, #64
 4960 005e FB74     		strb	r3, [r7, #19]
1567:/opt/XMClib/XMC_Peripheral_Library_v2.1.16/XMCLib/src/xmc_usbd.c ****     data.b.snak =  1U;
 4961              		.loc 1 1567 0
 4962 0060 FB7C     		ldrb	r3, [r7, #19]
 4963 0062 43F00803 		orr	r3, r3, #8
 4964 0066 FB74     		strb	r3, [r7, #19]
1568:/opt/XMClib/XMC_Peripheral_Library_v2.1.16/XMCLib/src/xmc_usbd.c ****     data.b.stall =  0U;
 4965              		.loc 1 1568 0
 4966 0068 BB7C     		ldrb	r3, [r7, #18]
 4967 006a 6FF34513 		bfc	r3, #5, #1
 4968 006e BB74     		strb	r3, [r7, #18]
1569:/opt/XMClib/XMC_Peripheral_Library_v2.1.16/XMCLib/src/xmc_usbd.c ****     ep->isConfigured =  0U;
 4969              		.loc 1 1569 0
 4970 0070 BA69     		ldr	r2, [r7, #24]
 4971 0072 1379     		ldrb	r3, [r2, #4]
 4972 0074 6FF38203 		bfc	r3, #2, #1
 4973 0078 1371     		strb	r3, [r2, #4]
1570:/opt/XMClib/XMC_Peripheral_Library_v2.1.16/XMCLib/src/xmc_usbd.c ****     ep->isStalled =  0U;
 4974              		.loc 1 1570 0
 4975 007a BA69     		ldr	r2, [r7, #24]
 4976 007c 1379     		ldrb	r3, [r2, #4]
 4977 007e 6FF34513 		bfc	r3, #5, #1
 4978 0082 1371     		strb	r3, [r2, #4]
1571:/opt/XMClib/XMC_Peripheral_Library_v2.1.16/XMCLib/src/xmc_usbd.c ****     ep->outInUse =  0U;
 4979              		.loc 1 1571 0
 4980 0084 BA69     		ldr	r2, [r7, #24]
 4981 0086 5368     		ldr	r3, [r2, #4]
 4982 0088 6FF30413 		bfc	r3, #4, #1
 4983 008c 5360     		str	r3, [r2, #4]
1572:/opt/XMClib/XMC_Peripheral_Library_v2.1.16/XMCLib/src/xmc_usbd.c ****     ep->inInUse =  0U;
 4984              		.loc 1 1572 0
 4985 008e BA69     		ldr	r2, [r7, #24]
 4986 0090 5368     		ldr	r3, [r2, #4]
 4987 0092 6FF3C303 		bfc	r3, #3, #1
 4988 0096 5360     		str	r3, [r2, #4]
1573:/opt/XMClib/XMC_Peripheral_Library_v2.1.16/XMCLib/src/xmc_usbd.c ****     /* chose register based on the direction. Control Endpoint need both */
1574:/opt/XMClib/XMC_Peripheral_Library_v2.1.16/XMCLib/src/xmc_usbd.c ****     if ((ep->address_u.address_st.direction == 1U) || (ep->type == (uint8_t)XMC_USBD_ENDPOINT_TYPE_
 4989              		.loc 1 1574 0
 4990 0098 BB69     		ldr	r3, [r7, #24]
 4991 009a 1B78     		ldrb	r3, [r3]	@ zero_extendqisi2
 4992 009c 23F07F03 		bic	r3, r3, #127
 4993 00a0 DBB2     		uxtb	r3, r3
 4994 00a2 002B     		cmp	r3, #0
 4995 00a4 06D1     		bne	.L284
 4996              		.loc 1 1574 0 is_stmt 0 discriminator 1
 4997 00a6 BB69     		ldr	r3, [r7, #24]
 4998 00a8 1B79     		ldrb	r3, [r3, #4]	@ zero_extendqisi2
 4999 00aa 03F00303 		and	r3, r3, #3
 5000 00ae DBB2     		uxtb	r3, r3
 5001 00b0 002B     		cmp	r3, #0
 5002 00b2 12D1     		bne	.L285
 5003              	.L284:
1575:/opt/XMClib/XMC_Peripheral_Library_v2.1.16/XMCLib/src/xmc_usbd.c ****     {
1576:/opt/XMClib/XMC_Peripheral_Library_v2.1.16/XMCLib/src/xmc_usbd.c ****       /* disable endpoint configuration */
1577:/opt/XMClib/XMC_Peripheral_Library_v2.1.16/XMCLib/src/xmc_usbd.c ****       xmc_device.endpoint_in_register[ep->address_u.address_st.number]->diepctl = data.d32;
 5004              		.loc 1 1577 0 is_stmt 1
 5005 00b4 BB69     		ldr	r3, [r7, #24]
 5006 00b6 1B78     		ldrb	r3, [r3]
 5007 00b8 C3F30303 		ubfx	r3, r3, #0, #4
 5008 00bc DBB2     		uxtb	r3, r3
 5009 00be 2A4A     		ldr	r2, .L289
 5010 00c0 6A33     		adds	r3, r3, #106
 5011 00c2 52F82330 		ldr	r3, [r2, r3, lsl #2]
 5012 00c6 3A69     		ldr	r2, [r7, #16]
 5013 00c8 1A60     		str	r2, [r3]
1578:/opt/XMClib/XMC_Peripheral_Library_v2.1.16/XMCLib/src/xmc_usbd.c ****       /* disable interrupts */
1579:/opt/XMClib/XMC_Peripheral_Library_v2.1.16/XMCLib/src/xmc_usbd.c ****       daintmsk.ep.in = (uint16_t)((uint32_t)daintmsk.ep.in & (~(uint32_t)number_temp));
 5014              		.loc 1 1579 0
 5015 00ca BA89     		ldrh	r2, [r7, #12]
 5016 00cc 7B69     		ldr	r3, [r7, #20]
 5017 00ce 9BB2     		uxth	r3, r3
 5018 00d0 DB43     		mvns	r3, r3
 5019 00d2 9BB2     		uxth	r3, r3
 5020 00d4 1340     		ands	r3, r3, r2
 5021 00d6 9BB2     		uxth	r3, r3
 5022 00d8 BB81     		strh	r3, [r7, #12]	@ movhi
 5023              	.L285:
1580:/opt/XMClib/XMC_Peripheral_Library_v2.1.16/XMCLib/src/xmc_usbd.c ****     }
1581:/opt/XMClib/XMC_Peripheral_Library_v2.1.16/XMCLib/src/xmc_usbd.c ****     if ((ep->address_u.address_st.direction == 0U) || (ep->type == (uint8_t)XMC_USBD_ENDPOINT_TYPE_
 5024              		.loc 1 1581 0
 5025 00da BB69     		ldr	r3, [r7, #24]
 5026 00dc 1B78     		ldrb	r3, [r3]	@ zero_extendqisi2
 5027 00de 23F07F03 		bic	r3, r3, #127
 5028 00e2 DBB2     		uxtb	r3, r3
 5029 00e4 002B     		cmp	r3, #0
 5030 00e6 06D0     		beq	.L286
 5031              		.loc 1 1581 0 is_stmt 0 discriminator 1
 5032 00e8 BB69     		ldr	r3, [r7, #24]
 5033 00ea 1B79     		ldrb	r3, [r3, #4]	@ zero_extendqisi2
 5034 00ec 03F00303 		and	r3, r3, #3
 5035 00f0 DBB2     		uxtb	r3, r3
 5036 00f2 002B     		cmp	r3, #0
 5037 00f4 23D1     		bne	.L287
 5038              	.L286:
1582:/opt/XMClib/XMC_Peripheral_Library_v2.1.16/XMCLib/src/xmc_usbd.c ****     {
1583:/opt/XMClib/XMC_Peripheral_Library_v2.1.16/XMCLib/src/xmc_usbd.c ****       xmc_device.endpoint_out_register[ep->address_u.address_st.number]->doepctl = data.d32;
 5039              		.loc 1 1583 0 is_stmt 1
 5040 00f6 BB69     		ldr	r3, [r7, #24]
 5041 00f8 1B78     		ldrb	r3, [r3]
 5042 00fa C3F30303 		ubfx	r3, r3, #0, #4
 5043 00fe DBB2     		uxtb	r3, r3
 5044 0100 194A     		ldr	r2, .L289
 5045 0102 7033     		adds	r3, r3, #112
 5046 0104 9B00     		lsls	r3, r3, #2
 5047 0106 1344     		add	r3, r3, r2
 5048 0108 5B68     		ldr	r3, [r3, #4]
 5049 010a 3A69     		ldr	r2, [r7, #16]
 5050 010c 1A60     		str	r2, [r3]
1584:/opt/XMClib/XMC_Peripheral_Library_v2.1.16/XMCLib/src/xmc_usbd.c ****       daintmsk.ep.out = (uint16_t)((uint32_t)daintmsk.ep.out & (~(uint32_t)number_temp));
 5051              		.loc 1 1584 0
 5052 010e FA89     		ldrh	r2, [r7, #14]
 5053 0110 7B69     		ldr	r3, [r7, #20]
 5054 0112 9BB2     		uxth	r3, r3
 5055 0114 DB43     		mvns	r3, r3
 5056 0116 9BB2     		uxth	r3, r3
 5057 0118 1340     		ands	r3, r3, r2
 5058 011a 9BB2     		uxth	r3, r3
 5059 011c FB81     		strh	r3, [r7, #14]	@ movhi
1585:/opt/XMClib/XMC_Peripheral_Library_v2.1.16/XMCLib/src/xmc_usbd.c ****       if(usbd_init->usbd_transfer_mode == XMC_USBD_USE_FIFO)
 5060              		.loc 1 1585 0
 5061 011e 134B     		ldr	r3, .L289+4
 5062 0120 1B68     		ldr	r3, [r3]
 5063 0122 5B7B     		ldrb	r3, [r3, #13]	@ zero_extendqisi2
 5064 0124 012B     		cmp	r3, #1
 5065 0126 0AD1     		bne	.L287
1586:/opt/XMClib/XMC_Peripheral_Library_v2.1.16/XMCLib/src/xmc_usbd.c ****       {
1587:/opt/XMClib/XMC_Peripheral_Library_v2.1.16/XMCLib/src/xmc_usbd.c ****         xmc_device.device_register->dtknqr4_fifoemptymsk &= ~number_temp;
 5066              		.loc 1 1587 0
 5067 0128 0F4B     		ldr	r3, .L289
 5068 012a D3F8A431 		ldr	r3, [r3, #420]
 5069 012e 596B     		ldr	r1, [r3, #52]
 5070 0130 7B69     		ldr	r3, [r7, #20]
 5071 0132 DA43     		mvns	r2, r3
 5072 0134 0C4B     		ldr	r3, .L289
 5073 0136 D3F8A431 		ldr	r3, [r3, #420]
 5074 013a 0A40     		ands	r2, r2, r1
 5075 013c 5A63     		str	r2, [r3, #52]
 5076              	.L287:
1588:/opt/XMClib/XMC_Peripheral_Library_v2.1.16/XMCLib/src/xmc_usbd.c ****       }
1589:/opt/XMClib/XMC_Peripheral_Library_v2.1.16/XMCLib/src/xmc_usbd.c ****     }
1590:/opt/XMClib/XMC_Peripheral_Library_v2.1.16/XMCLib/src/xmc_usbd.c ****     xmc_device.device_register->daintmsk = daintmsk.d32;
 5077              		.loc 1 1590 0
 5078 013e 0A4B     		ldr	r3, .L289
 5079 0140 D3F8A431 		ldr	r3, [r3, #420]
 5080 0144 FA68     		ldr	r2, [r7, #12]
 5081 0146 DA61     		str	r2, [r3, #28]
1591:/opt/XMClib/XMC_Peripheral_Library_v2.1.16/XMCLib/src/xmc_usbd.c ****     XMC_USBD_lUnassignFifo(ep->txFifoNum); /* free fifo */
 5082              		.loc 1 1591 0
 5083 0148 BB69     		ldr	r3, [r7, #24]
 5084 014a 9B88     		ldrh	r3, [r3, #4]	@ movhi
 5085 014c C3F38313 		ubfx	r3, r3, #6, #4
 5086 0150 DBB2     		uxtb	r3, r3
 5087 0152 1846     		mov	r0, r3
 5088 0154 FFF7FEFF 		bl	XMC_USBD_lUnassignFifo
1592:/opt/XMClib/XMC_Peripheral_Library_v2.1.16/XMCLib/src/xmc_usbd.c ****     result = XMC_USBD_STATUS_OK;
 5089              		.loc 1 1592 0
 5090 0158 0023     		movs	r3, #0
 5091 015a FB77     		strb	r3, [r7, #31]
 5092              	.L283:
1593:/opt/XMClib/XMC_Peripheral_Library_v2.1.16/XMCLib/src/xmc_usbd.c ****   }
1594:/opt/XMClib/XMC_Peripheral_Library_v2.1.16/XMCLib/src/xmc_usbd.c ****   return result;
 5093              		.loc 1 1594 0
 5094 015c FB7F     		ldrb	r3, [r7, #31]	@ zero_extendqisi2
1595:/opt/XMClib/XMC_Peripheral_Library_v2.1.16/XMCLib/src/xmc_usbd.c **** }
 5095              		.loc 1 1595 0
 5096 015e 1846     		mov	r0, r3
 5097 0160 2037     		adds	r7, r7, #32
 5098              	.LCFI203:
 5099              		.cfi_def_cfa_offset 8
 5100 0162 BD46     		mov	sp, r7
 5101              	.LCFI204:
 5102              		.cfi_def_cfa_register 13
 5103              		@ sp needed
 5104 0164 80BD     		pop	{r7, pc}
 5105              	.L290:
 5106 0166 00BF     		.align	2
 5107              	.L289:
 5108 0168 00000000 		.word	xmc_device
 5109 016c 00000000 		.word	usbd_init
 5110              		.cfi_endproc
 5111              	.LFE199:
 5113              		.section	.text.XMC_USBD_GetFrameNumber,"ax",%progbits
 5114              		.align	1
 5115              		.global	XMC_USBD_GetFrameNumber
 5116              		.syntax unified
 5117              		.thumb
 5118              		.thumb_func
 5119              		.fpu fpv4-sp-d16
 5121              	XMC_USBD_GetFrameNumber:
 5122              	.LFB200:
1596:/opt/XMClib/XMC_Peripheral_Library_v2.1.16/XMCLib/src/xmc_usbd.c **** 
1597:/opt/XMClib/XMC_Peripheral_Library_v2.1.16/XMCLib/src/xmc_usbd.c **** /**
1598:/opt/XMClib/XMC_Peripheral_Library_v2.1.16/XMCLib/src/xmc_usbd.c ****  * Gets the current USB frame number
1599:/opt/XMClib/XMC_Peripheral_Library_v2.1.16/XMCLib/src/xmc_usbd.c ****  **/
1600:/opt/XMClib/XMC_Peripheral_Library_v2.1.16/XMCLib/src/xmc_usbd.c **** uint16_t XMC_USBD_GetFrameNumber(void) 
1601:/opt/XMClib/XMC_Peripheral_Library_v2.1.16/XMCLib/src/xmc_usbd.c **** {
 5123              		.loc 1 1601 0
 5124              		.cfi_startproc
 5125              		@ args = 0, pretend = 0, frame = 8
 5126              		@ frame_needed = 1, uses_anonymous_args = 0
 5127              		@ link register save eliminated.
 5128 0000 80B4     		push	{r7}
 5129              	.LCFI205:
 5130              		.cfi_def_cfa_offset 4
 5131              		.cfi_offset 7, -4
 5132 0002 83B0     		sub	sp, sp, #12
 5133              	.LCFI206:
 5134              		.cfi_def_cfa_offset 16
 5135 0004 00AF     		add	r7, sp, #0
 5136              	.LCFI207:
 5137              		.cfi_def_cfa_register 7
1602:/opt/XMClib/XMC_Peripheral_Library_v2.1.16/XMCLib/src/xmc_usbd.c ****   uint16_t result;
1603:/opt/XMClib/XMC_Peripheral_Library_v2.1.16/XMCLib/src/xmc_usbd.c ****   dsts_data_t dsts;
1604:/opt/XMClib/XMC_Peripheral_Library_v2.1.16/XMCLib/src/xmc_usbd.c ****   dsts.d32 = xmc_device.device_register->dsts;
 5138              		.loc 1 1604 0
 5139 0006 084B     		ldr	r3, .L293
 5140 0008 D3F8A431 		ldr	r3, [r3, #420]
 5141 000c 9B68     		ldr	r3, [r3, #8]
 5142 000e 3B60     		str	r3, [r7]
1605:/opt/XMClib/XMC_Peripheral_Library_v2.1.16/XMCLib/src/xmc_usbd.c ****   result = (uint16_t)dsts.b.soffn;
 5143              		.loc 1 1605 0
 5144 0010 3B68     		ldr	r3, [r7]
 5145 0012 C3F30D23 		ubfx	r3, r3, #8, #14
 5146 0016 9BB2     		uxth	r3, r3
 5147 0018 FB80     		strh	r3, [r7, #6]	@ movhi
1606:/opt/XMClib/XMC_Peripheral_Library_v2.1.16/XMCLib/src/xmc_usbd.c ****   return result;
 5148              		.loc 1 1606 0
 5149 001a FB88     		ldrh	r3, [r7, #6]
1607:/opt/XMClib/XMC_Peripheral_Library_v2.1.16/XMCLib/src/xmc_usbd.c **** }
 5150              		.loc 1 1607 0
 5151 001c 1846     		mov	r0, r3
 5152 001e 0C37     		adds	r7, r7, #12
 5153              	.LCFI208:
 5154              		.cfi_def_cfa_offset 4
 5155 0020 BD46     		mov	sp, r7
 5156              	.LCFI209:
 5157              		.cfi_def_cfa_register 13
 5158              		@ sp needed
 5159 0022 5DF8047B 		ldr	r7, [sp], #4
 5160              	.LCFI210:
 5161              		.cfi_restore 7
 5162              		.cfi_def_cfa_offset 0
 5163 0026 7047     		bx	lr
 5164              	.L294:
 5165              		.align	2
 5166              	.L293:
 5167 0028 00000000 		.word	xmc_device
 5168              		.cfi_endproc
 5169              	.LFE200:
 5171              		.section	.text.XMC_USBD_IsEnumDone,"ax",%progbits
 5172              		.align	1
 5173              		.global	XMC_USBD_IsEnumDone
 5174              		.syntax unified
 5175              		.thumb
 5176              		.thumb_func
 5177              		.fpu fpv4-sp-d16
 5179              	XMC_USBD_IsEnumDone:
 5180              	.LFB201:
1608:/opt/XMClib/XMC_Peripheral_Library_v2.1.16/XMCLib/src/xmc_usbd.c **** 
1609:/opt/XMClib/XMC_Peripheral_Library_v2.1.16/XMCLib/src/xmc_usbd.c **** /**
1610:/opt/XMClib/XMC_Peripheral_Library_v2.1.16/XMCLib/src/xmc_usbd.c ****  * Gets the USB speed enumeration completion status.
1611:/opt/XMClib/XMC_Peripheral_Library_v2.1.16/XMCLib/src/xmc_usbd.c ****  * This should not be used for the actual USB enumeration completion status. For the actual USB enu
1612:/opt/XMClib/XMC_Peripheral_Library_v2.1.16/XMCLib/src/xmc_usbd.c ****  * the application layer should check for the completion of USB standard request Set configuration.
1613:/opt/XMClib/XMC_Peripheral_Library_v2.1.16/XMCLib/src/xmc_usbd.c ****  **/
1614:/opt/XMClib/XMC_Peripheral_Library_v2.1.16/XMCLib/src/xmc_usbd.c **** uint32_t XMC_USBD_IsEnumDone(void)
1615:/opt/XMClib/XMC_Peripheral_Library_v2.1.16/XMCLib/src/xmc_usbd.c **** {
 5181              		.loc 1 1615 0
 5182              		.cfi_startproc
 5183              		@ args = 0, pretend = 0, frame = 0
 5184              		@ frame_needed = 1, uses_anonymous_args = 0
 5185              		@ link register save eliminated.
 5186 0000 80B4     		push	{r7}
 5187              	.LCFI211:
 5188              		.cfi_def_cfa_offset 4
 5189              		.cfi_offset 7, -4
 5190 0002 00AF     		add	r7, sp, #0
 5191              	.LCFI212:
 5192              		.cfi_def_cfa_register 7
1616:/opt/XMClib/XMC_Peripheral_Library_v2.1.16/XMCLib/src/xmc_usbd.c ****   return (uint32_t)((uint8_t)xmc_device.IsConnected && (uint8_t)xmc_device.IsPowered);
 5193              		.loc 1 1616 0
 5194 0004 0B4B     		ldr	r3, .L299
 5195 0006 93F8FE31 		ldrb	r3, [r3, #510]	@ zero_extendqisi2
 5196 000a 03F00103 		and	r3, r3, #1
 5197 000e DBB2     		uxtb	r3, r3
 5198 0010 002B     		cmp	r3, #0
 5199 0012 09D0     		beq	.L296
 5200              		.loc 1 1616 0 is_stmt 0 discriminator 1
 5201 0014 074B     		ldr	r3, .L299
 5202 0016 93F8FE31 		ldrb	r3, [r3, #510]	@ zero_extendqisi2
 5203 001a 03F00403 		and	r3, r3, #4
 5204 001e DBB2     		uxtb	r3, r3
 5205 0020 002B     		cmp	r3, #0
 5206 0022 01D0     		beq	.L296
 5207              		.loc 1 1616 0 discriminator 3
 5208 0024 0123     		movs	r3, #1
 5209 0026 00E0     		b	.L297
 5210              	.L296:
 5211              		.loc 1 1616 0 discriminator 4
 5212 0028 0023     		movs	r3, #0
 5213              	.L297:
1617:/opt/XMClib/XMC_Peripheral_Library_v2.1.16/XMCLib/src/xmc_usbd.c **** }
 5214              		.loc 1 1617 0 is_stmt 1 discriminator 6
 5215 002a 1846     		mov	r0, r3
 5216 002c BD46     		mov	sp, r7
 5217              	.LCFI213:
 5218              		.cfi_def_cfa_register 13
 5219              		@ sp needed
 5220 002e 5DF8047B 		ldr	r7, [sp], #4
 5221              	.LCFI214:
 5222              		.cfi_restore 7
 5223              		.cfi_def_cfa_offset 0
 5224 0032 7047     		bx	lr
 5225              	.L300:
 5226              		.align	2
 5227              	.L299:
 5228 0034 00000000 		.word	xmc_device
 5229              		.cfi_endproc
 5230              	.LFE201:
 5232              		.text
 5233              	.Letext0:
 5234              		.file 2 "/usr/arm-none-eabi/include/machine/_default_types.h"
 5235              		.file 3 "/usr/arm-none-eabi/include/sys/_stdint.h"
 5236              		.file 4 "/usr/arm-none-eabi/include/sys/lock.h"
 5237              		.file 5 "/usr/arm-none-eabi/include/sys/_types.h"
 5238              		.file 6 "/usr/lib/gcc/arm-none-eabi/7.3.1/include/stddef.h"
 5239              		.file 7 "/usr/arm-none-eabi/include/sys/reent.h"
 5240              		.file 8 "/opt/XMClib/XMC_Peripheral_Library_v2.1.16/CMSIS/Include/core_cm4.h"
 5241              		.file 9 "/opt/XMClib/XMC_Peripheral_Library_v2.1.16/CMSIS/Infineon/XMC4500_series/Include/system_X
 5242              		.file 10 "/opt/XMClib/XMC_Peripheral_Library_v2.1.16/CMSIS/Infineon/XMC4500_series/Include/XMC4500
 5243              		.file 11 "/usr/arm-none-eabi/include/stdlib.h"
 5244              		.file 12 "/opt/XMClib/XMC_Peripheral_Library_v2.1.16/XMCLib/inc/xmc_usbd_regs.h"
 5245              		.file 13 "/opt/XMClib/XMC_Peripheral_Library_v2.1.16/XMCLib/inc/xmc4_scu.h"
 5246              		.file 14 "/opt/XMClib/XMC_Peripheral_Library_v2.1.16/XMCLib/inc/xmc_usbd.h"
DEFINED SYMBOLS
                            *ABS*:0000000000000000 xmc_usbd.c
     /tmp/ccBIormM.s:21     .bss:0000000000000000 XMC_USBD_EP_OUT_BUFFERSIZE
     /tmp/ccBIormM.s:18     .bss:0000000000000000 $d
     /tmp/ccBIormM.s:27     .bss:000000000000001c XMC_USBD_EP_IN_BUFFERSIZE
                            *COM*:0000000000000208 xmc_device
     /tmp/ccBIormM.s:31     USB_RAM:0000000000000000 $d
     /tmp/ccBIormM.s:34     USB_RAM:0000000000000000 XMC_USBD_EP_OUT_BUFFER
     /tmp/ccBIormM.s:39     USB_RAM:0000000000000700 XMC_USBD_EP_IN_BUFFER
                            *COM*:0000000000000004 usbd_init
     /tmp/ccBIormM.s:47     .rodata:0000000000000000 Driver_USBD0
     /tmp/ccBIormM.s:44     .rodata:0000000000000000 $d
     /tmp/ccBIormM.s:3036   .text.XMC_USBD_GetCapabilities:0000000000000000 XMC_USBD_GetCapabilities
     /tmp/ccBIormM.s:3123   .text.XMC_USBD_Init:0000000000000000 XMC_USBD_Init
     /tmp/ccBIormM.s:3467   .text.XMC_USBD_Uninitialize:0000000000000000 XMC_USBD_Uninitialize
     /tmp/ccBIormM.s:3530   .text.XMC_USBD_DeviceConnect:0000000000000000 XMC_USBD_DeviceConnect
     /tmp/ccBIormM.s:3592   .text.XMC_USBD_DeviceDisconnect:0000000000000000 XMC_USBD_DeviceDisconnect
     /tmp/ccBIormM.s:3654   .text.XMC_USBD_DeviceGetState:0000000000000000 XMC_USBD_DeviceGetState
     /tmp/ccBIormM.s:4076   .text.XMC_USBD_DeviceSetAddress:0000000000000000 XMC_USBD_DeviceSetAddress
     /tmp/ccBIormM.s:4464   .text.XMC_USBD_EndpointConfigure:0000000000000000 XMC_USBD_EndpointConfigure
     /tmp/ccBIormM.s:4897   .text.XMC_USBD_EndpointUnconfigure:0000000000000000 XMC_USBD_EndpointUnconfigure
     /tmp/ccBIormM.s:4151   .text.XMC_USBD_EndpointStall:0000000000000000 XMC_USBD_EndpointStall
     /tmp/ccBIormM.s:3732   .text.XMC_USBD_EndpointReadStart:0000000000000000 XMC_USBD_EndpointReadStart
     /tmp/ccBIormM.s:3846   .text.XMC_USBD_EndpointRead:0000000000000000 XMC_USBD_EndpointRead
     /tmp/ccBIormM.s:3948   .text.XMC_USBD_EndpointWrite:0000000000000000 XMC_USBD_EndpointWrite
     /tmp/ccBIormM.s:4355   .text.XMC_USBD_EndpointAbort:0000000000000000 XMC_USBD_EndpointAbort
     /tmp/ccBIormM.s:5121   .text.XMC_USBD_GetFrameNumber:0000000000000000 XMC_USBD_GetFrameNumber
     /tmp/ccBIormM.s:5179   .text.XMC_USBD_IsEnumDone:0000000000000000 XMC_USBD_IsEnumDone
     /tmp/ccBIormM.s:65     .text.XMC_USBD_lDeviceActive:0000000000000000 $t
     /tmp/ccBIormM.s:72     .text.XMC_USBD_lDeviceActive:0000000000000000 XMC_USBD_lDeviceActive
     /tmp/ccBIormM.s:156    .text.XMC_USBD_lDeviceActive:0000000000000064 $d
     /tmp/ccBIormM.s:161    .text.XMC_USBD_lReadFifo:0000000000000000 $t
     /tmp/ccBIormM.s:167    .text.XMC_USBD_lReadFifo:0000000000000000 XMC_USBD_lReadFifo
     /tmp/ccBIormM.s:327    .text.XMC_USBD_lReadFifo:00000000000000e4 $d
     /tmp/ccBIormM.s:332    .text.XMC_USBD_lWriteFifo:0000000000000000 $t
     /tmp/ccBIormM.s:338    .text.XMC_USBD_lWriteFifo:0000000000000000 XMC_USBD_lWriteFifo
     /tmp/ccBIormM.s:460    .text.XMC_USBD_lWriteFifo:00000000000000a0 $d
     /tmp/ccBIormM.s:465    .text.XMC_USBD_lFlushTXFifo:0000000000000000 $t
     /tmp/ccBIormM.s:471    .text.XMC_USBD_lFlushTXFifo:0000000000000000 XMC_USBD_lFlushTXFifo
     /tmp/ccBIormM.s:564    .text.XMC_USBD_lFlushTXFifo:0000000000000078 $d
     /tmp/ccBIormM.s:569    .text.XMC_USBD_lFlushRXFifo:0000000000000000 $t
     /tmp/ccBIormM.s:575    .text.XMC_USBD_lFlushRXFifo:0000000000000000 XMC_USBD_lFlushRXFifo
     /tmp/ccBIormM.s:659    .text.XMC_USBD_lFlushRXFifo:0000000000000064 $d
     /tmp/ccBIormM.s:664    .text.XMC_USBD_lAssignTXFifo:0000000000000000 $t
     /tmp/ccBIormM.s:670    .text.XMC_USBD_lAssignTXFifo:0000000000000000 XMC_USBD_lAssignTXFifo
     /tmp/ccBIormM.s:760    .text.XMC_USBD_lAssignTXFifo:000000000000006c $d
     /tmp/ccBIormM.s:765    .text.XMC_USBD_lUnassignFifo:0000000000000000 $t
     /tmp/ccBIormM.s:771    .text.XMC_USBD_lUnassignFifo:0000000000000000 XMC_USBD_lUnassignFifo
     /tmp/ccBIormM.s:820    .text.XMC_USBD_lUnassignFifo:0000000000000034 $d
     /tmp/ccBIormM.s:825    .text.XMC_USBD_lStartReadXfer:0000000000000000 $t
     /tmp/ccBIormM.s:831    .text.XMC_USBD_lStartReadXfer:0000000000000000 XMC_USBD_lStartReadXfer
     /tmp/ccBIormM.s:1045   .text.XMC_USBD_lStartReadXfer:0000000000000170 $d
     /tmp/ccBIormM.s:1051   .text.XMC_USBD_lStartWriteXfer:0000000000000000 $t
     /tmp/ccBIormM.s:1057   .text.XMC_USBD_lStartWriteXfer:0000000000000000 XMC_USBD_lStartWriteXfer
     /tmp/ccBIormM.s:1283   .text.XMC_USBD_lStartWriteXfer:0000000000000190 $d
     /tmp/ccBIormM.s:1289   .text.XMC_USBD_lHandleUSBReset:0000000000000000 $t
     /tmp/ccBIormM.s:1295   .text.XMC_USBD_lHandleUSBReset:0000000000000000 XMC_USBD_lHandleUSBReset
     /tmp/ccBIormM.s:2918   .text.XMC_USBD_EnableEventOUTEP:0000000000000000 XMC_USBD_EnableEventOUTEP
     /tmp/ccBIormM.s:2977   .text.XMC_USBD_EnableEventINEP:0000000000000000 XMC_USBD_EnableEventINEP
     /tmp/ccBIormM.s:2595   .text.XMC_USBD_ClearEvent:0000000000000000 XMC_USBD_ClearEvent
     /tmp/ccBIormM.s:1501   .text.XMC_USBD_lHandleUSBReset:000000000000014c $d
     /tmp/ccBIormM.s:1506   .text.XMC_USBD_lHandleOTGInt:0000000000000000 $t
     /tmp/ccBIormM.s:1512   .text.XMC_USBD_lHandleOTGInt:0000000000000000 XMC_USBD_lHandleOTGInt
     /tmp/ccBIormM.s:2740   .text.XMC_USBD_lClearEventOTG:0000000000000000 XMC_USBD_lClearEventOTG
     /tmp/ccBIormM.s:1569   .text.XMC_USBD_lHandleOTGInt:0000000000000044 $d
     /tmp/ccBIormM.s:1574   .text.XMC_USBD_lHandleEnumDone:0000000000000000 $t
     /tmp/ccBIormM.s:1580   .text.XMC_USBD_lHandleEnumDone:0000000000000000 XMC_USBD_lHandleEnumDone
     /tmp/ccBIormM.s:1658   .text.XMC_USBD_lHandleEnumDone:0000000000000074 $d
     /tmp/ccBIormM.s:1663   .text.XMC_USBD_lHandleOEPInt:0000000000000000 $t
     /tmp/ccBIormM.s:1669   .text.XMC_USBD_lHandleOEPInt:0000000000000000 XMC_USBD_lHandleOEPInt
     /tmp/ccBIormM.s:2857   .text.XMC_USBD_ClearEventOUTEP:0000000000000000 XMC_USBD_ClearEventOUTEP
     /tmp/ccBIormM.s:1928   .text.XMC_USBD_lHandleOEPInt:00000000000001b8 $d
     /tmp/ccBIormM.s:1933   .text.XMC_USBD_lHandleIEPInt:0000000000000000 $t
     /tmp/ccBIormM.s:1939   .text.XMC_USBD_lHandleIEPInt:0000000000000000 XMC_USBD_lHandleIEPInt
     /tmp/ccBIormM.s:2798   .text.XMC_USBD_ClearEventINEP:0000000000000000 XMC_USBD_ClearEventINEP
     /tmp/ccBIormM.s:2199   .text.XMC_USBD_lHandleIEPInt:00000000000001b8 $d
     /tmp/ccBIormM.s:2204   .text.XMC_USBD_lHandleRxFLvl:0000000000000000 $t
     /tmp/ccBIormM.s:2210   .text.XMC_USBD_lHandleRxFLvl:0000000000000000 XMC_USBD_lHandleRxFLvl
     /tmp/ccBIormM.s:2243   .text.XMC_USBD_lHandleRxFLvl:0000000000000024 $d
     /tmp/ccBIormM.s:2249   .text.XMC_USBD_lHandleRxFLvl:000000000000003c $t
     /tmp/ccBIormM.s:2295   .text.XMC_USBD_lHandleRxFLvl:0000000000000080 $d
     /tmp/ccBIormM.s:2300   .text.XMC_USBD_IRQHandler:0000000000000000 $t
     /tmp/ccBIormM.s:2307   .text.XMC_USBD_IRQHandler:0000000000000000 XMC_USBD_IRQHandler
     /tmp/ccBIormM.s:2509   .text.XMC_USBD_IRQHandler:000000000000014c $d
     /tmp/ccBIormM.s:2514   .text.XMC_USBD_Enable:0000000000000000 $t
     /tmp/ccBIormM.s:2521   .text.XMC_USBD_Enable:0000000000000000 XMC_USBD_Enable
     /tmp/ccBIormM.s:2546   .text.XMC_USBD_Enable:0000000000000014 $d
     /tmp/ccBIormM.s:2551   .text.XMC_USBD_Disable:0000000000000000 $t
     /tmp/ccBIormM.s:2558   .text.XMC_USBD_Disable:0000000000000000 XMC_USBD_Disable
     /tmp/ccBIormM.s:2583   .text.XMC_USBD_Disable:0000000000000014 $d
     /tmp/ccBIormM.s:2588   .text.XMC_USBD_ClearEvent:0000000000000000 $t
     /tmp/ccBIormM.s:2625   .text.XMC_USBD_ClearEvent:000000000000001c $d
     /tmp/ccBIormM.s:2639   .text.XMC_USBD_ClearEvent:0000000000000054 $t
     /tmp/ccBIormM.s:2729   .text.XMC_USBD_ClearEvent:00000000000000c8 $d
     /tmp/ccBIormM.s:2734   .text.XMC_USBD_lClearEventOTG:0000000000000000 $t
     /tmp/ccBIormM.s:2786   .text.XMC_USBD_lClearEventOTG:0000000000000028 $d
     /tmp/ccBIormM.s:2791   .text.XMC_USBD_ClearEventINEP:0000000000000000 $t
     /tmp/ccBIormM.s:2845   .text.XMC_USBD_ClearEventINEP:000000000000002c $d
     /tmp/ccBIormM.s:2850   .text.XMC_USBD_ClearEventOUTEP:0000000000000000 $t
     /tmp/ccBIormM.s:2906   .text.XMC_USBD_ClearEventOUTEP:000000000000002c $d
     /tmp/ccBIormM.s:2911   .text.XMC_USBD_EnableEventOUTEP:0000000000000000 $t
     /tmp/ccBIormM.s:2965   .text.XMC_USBD_EnableEventOUTEP:000000000000002c $d
     /tmp/ccBIormM.s:2970   .text.XMC_USBD_EnableEventINEP:0000000000000000 $t
     /tmp/ccBIormM.s:3024   .text.XMC_USBD_EnableEventINEP:000000000000002c $d
     /tmp/ccBIormM.s:3029   .text.XMC_USBD_GetCapabilities:0000000000000000 $t
     /tmp/ccBIormM.s:3116   .text.XMC_USBD_Init:0000000000000000 $t
     /tmp/ccBIormM.s:3452   .text.XMC_USBD_Init:000000000000022c $d
     /tmp/ccBIormM.s:3460   .text.XMC_USBD_Uninitialize:0000000000000000 $t
     /tmp/ccBIormM.s:3518   .text.XMC_USBD_Uninitialize:0000000000000038 $d
     /tmp/ccBIormM.s:3523   .text.XMC_USBD_DeviceConnect:0000000000000000 $t
     /tmp/ccBIormM.s:3580   .text.XMC_USBD_DeviceConnect:0000000000000030 $d
     /tmp/ccBIormM.s:3585   .text.XMC_USBD_DeviceDisconnect:0000000000000000 $t
     /tmp/ccBIormM.s:3642   .text.XMC_USBD_DeviceDisconnect:0000000000000030 $d
     /tmp/ccBIormM.s:3647   .text.XMC_USBD_DeviceGetState:0000000000000000 $t
     /tmp/ccBIormM.s:3720   .text.XMC_USBD_DeviceGetState:0000000000000060 $d
     /tmp/ccBIormM.s:3725   .text.XMC_USBD_EndpointReadStart:0000000000000000 $t
     /tmp/ccBIormM.s:3834   .text.XMC_USBD_EndpointReadStart:0000000000000084 $d
     /tmp/ccBIormM.s:3839   .text.XMC_USBD_EndpointRead:0000000000000000 $t
     /tmp/ccBIormM.s:3936   .text.XMC_USBD_EndpointRead:0000000000000074 $d
     /tmp/ccBIormM.s:3941   .text.XMC_USBD_EndpointWrite:0000000000000000 $t
     /tmp/ccBIormM.s:4064   .text.XMC_USBD_EndpointWrite:00000000000000a0 $d
     /tmp/ccBIormM.s:4069   .text.XMC_USBD_DeviceSetAddress:0000000000000000 $t
     /tmp/ccBIormM.s:4139   .text.XMC_USBD_DeviceSetAddress:0000000000000048 $d
     /tmp/ccBIormM.s:4144   .text.XMC_USBD_EndpointStall:0000000000000000 $t
     /tmp/ccBIormM.s:4343   .text.XMC_USBD_EndpointStall:0000000000000148 $d
     /tmp/ccBIormM.s:4348   .text.XMC_USBD_EndpointAbort:0000000000000000 $t
     /tmp/ccBIormM.s:4452   .text.XMC_USBD_EndpointAbort:0000000000000084 $d
     /tmp/ccBIormM.s:4457   .text.XMC_USBD_EndpointConfigure:0000000000000000 $t
     /tmp/ccBIormM.s:4881   .text.XMC_USBD_EndpointConfigure:00000000000002d4 $d
     /tmp/ccBIormM.s:4890   .text.XMC_USBD_EndpointUnconfigure:0000000000000000 $t
     /tmp/ccBIormM.s:5108   .text.XMC_USBD_EndpointUnconfigure:0000000000000168 $d
     /tmp/ccBIormM.s:5114   .text.XMC_USBD_GetFrameNumber:0000000000000000 $t
     /tmp/ccBIormM.s:5167   .text.XMC_USBD_GetFrameNumber:0000000000000028 $d
     /tmp/ccBIormM.s:5172   .text.XMC_USBD_IsEnumDone:0000000000000000 $t
     /tmp/ccBIormM.s:5228   .text.XMC_USBD_IsEnumDone:0000000000000034 $d
                           .group:0000000000000000 wm4.0.7a9f4dea188ccacb7d502cdcabb040c1
                           .group:0000000000000000 wm4.stddef.h.39.99b5021e28f91cdb161c889e07266673
                           .group:0000000000000000 wm4._newlib_version.h.4.875b979a44719054cd750d0952ad3fd6
                           .group:0000000000000000 wm4.features.h.33.5bd1eea2d80518b50f7af0b5ce6750e0
                           .group:0000000000000000 wm4._default_types.h.15.247e5cd201eca3442cbf5404108c4935
                           .group:0000000000000000 wm4._intsup.h.10.cce27fed8484c08a33f522034c30d2b5
                           .group:0000000000000000 wm4._stdint.h.10.c24fa3af3bc1706662bb5593a907e841
                           .group:0000000000000000 wm4.stdint.h.23.d53047a68f4a85177f80b422d52785ed
                           .group:0000000000000000 wm4.stdbool.h.29.07dce69c3b78884144b7f7bd19483461
                           .group:0000000000000000 wm4.newlib.h.8.f6e543eac3f2f65163ba2ffe3b04987b
                           .group:0000000000000000 wm4.ieeefp.h.77.220d9cccac42cd58761758bee2df4ce6
                           .group:0000000000000000 wm4.config.h.220.6cac6a9685cfce5e83c17784171638d9
                           .group:0000000000000000 wm4._ansi.h.31.de524f58584151836e90d8620a16f8e8
                           .group:0000000000000000 wm4.lock.h.2.1461d1fff82dffe8bfddc23307f6484f
                           .group:0000000000000000 wm4._types.h.125.5cf8a495f1f7ef36777ad868a1e32068
                           .group:0000000000000000 wm4.stddef.h.161.5349cb105733e8777bfb0cf53c4e3f34
                           .group:0000000000000000 wm4._types.h.184.03611d4f6b5bec9997bcf4279eceba07
                           .group:0000000000000000 wm4.reent.h.17.90c2574d4acdcfce933db5cb09ff35fe
                           .group:0000000000000000 wm4.cdefs.h.47.14fad0b327eb9dcf106599b738d85132
                           .group:0000000000000000 wm4.string.h.15.dab3980bf35408a4c507182805e2de3a
                           .group:0000000000000000 wm4.stddef.h.161.19e15733342b50ead2919490b095303e
                           .group:0000000000000000 wm4.xmc_device.h.61.ba2d082e12f51240746cffdd60d42b81
                           .group:0000000000000000 wm4.XMC4500.h.55.9aa45b9b5790506b2dcb963e4e7adeaf
                           .group:0000000000000000 wm4.core_cm4.h.32.6c6eb1c8daeca23ce7ba79c8e8120d52
                           .group:0000000000000000 wm4.cmsis_gcc.h.26.91b63349961c35637933e4fba51b867b
                           .group:0000000000000000 wm4.core_cm4.h.172.fdd5a388a160bb6ff767b7d7ee212268
                           .group:0000000000000000 wm4.system_XMC4500.h.42.99124977c10ca8844a71949adbeabd70
                           .group:0000000000000000 wm4.XMC4500.h.208.b340195df97f067735c4c769ba59985a
                           .group:0000000000000000 wm4.xmc_device.h.1460.8860499b404961ffcfbb8d1fefcb2146
                           .group:0000000000000000 wm4.xmc_common.h.92.3f4336a80569affab05a81145b87c2fc
                           .group:0000000000000000 wm4.stdlib.h.13.4ed386f5c1a80d71e72172885d946ef2
                           .group:0000000000000000 wm4.alloca.h.8.dfc0c703c47ec3e69746825b17d9e66d
                           .group:0000000000000000 wm4.stdlib.h.56.d4493cd3736e51e9d56335045f26df45
                           .group:0000000000000000 wm4.xmc_usbd_regs.h.80.57c6c85fa0ecbc9f8327ce445aebb9bc
                           .group:0000000000000000 wm4.xmc4_scu.h.83.0449f5880ac071460ec1a8072311ea51
                           .group:0000000000000000 wm4.xmc_usbd.h.122.ce57a9e6a9da48ee33ece02813c49593

UNDEFINED SYMBOLS
XMC_SCU_RESET_DeassertPeripheralReset
XMC_SCU_POWER_EnableUsb
XMC_SCU_RESET_AssertPeripheralReset
XMC_SCU_POWER_DisableUsb
memset
memcpy
